
libpal.so:     file format elf64-x86-64-freebsd

Disassembly of section .plt:

0000000000003160 <DkObjectClose@plt-0x10>:
    3160:	ff 35 42 0a 22 00    	pushq  0x220a42(%rip)        # 223ba8 <_GLOBAL_OFFSET_TABLE_+0x8>
    3166:	ff 25 44 0a 22 00    	jmpq   *0x220a44(%rip)        # 223bb0 <_GLOBAL_OFFSET_TABLE_+0x10>
    316c:	0f 1f 40 00          	nopl   0x0(%rax)

0000000000003170 <DkObjectClose@plt>:
    3170:	ff 25 42 0a 22 00    	jmpq   *0x220a42(%rip)        # 223bb8 <_GLOBAL_OFFSET_TABLE_+0x18>
    3176:	68 00 00 00 00       	pushq  $0x0
    317b:	e9 e0 ff ff ff       	jmpq   3160 <GLIBC+0x3160>
Disassembly of section .text:

0000000000003180 <DkStreamAttributesSetbyHandle>:
/* PAL call DkStreamAttributesSetbyHandle: Set attribute of a stream by
   its handle, attr is memory given by user space. Return the pointer of attr
   if succeeded, or NULL if failed. Error code is notified */
PAL_BOL
DkStreamAttributesSetbyHandle (PAL_HANDLE handle, PAL_STREAM_ATTR * attr)
{
    3180:	55                   	push   %rbp
    3181:	48 89 e5             	mov    %rsp,%rbp
    3184:	41 56                	push   %r14
    3186:	41 55                	push   %r13

static inline
void __store_frame (struct pal_frame * frame,
                    void * func, const char * funcname)
{
    frame->self = frame;
    3188:	48 8d 85 70 ff ff ff 	lea    -0x90(%rbp),%rax
    318f:	41 54                	push   %r12
    3191:	53                   	push   %rbx
    3192:	49 89 fc             	mov    %rdi,%r12
    3195:	49 89 f5             	mov    %rsi,%r13
    3198:	48 83 ec 70          	sub    $0x70,%rsp
    319c:	48 89 85 70 ff ff ff 	mov    %rax,-0x90(%rbp)
    frame->func = func;
    31a3:	48 8b 05 ae 07 22 00 	mov    0x2207ae(%rip),%rax        # 223958 <_DYNAMIC+0x170>
    frame->funcname = funcname;
    frame->context = NULL;
    31aa:	48 c7 45 d0 00 00 00 	movq   $0x0,-0x30(%rbp)
    31b1:	00 
    frame->retval = NULL;
    31b2:	48 c7 45 d8 00 00 00 	movq   $0x0,-0x28(%rbp)
    31b9:	00 
static inline
void __store_frame (struct pal_frame * frame,
                    void * func, const char * funcname)
{
    frame->self = frame;
    frame->func = func;
    31ba:	48 89 85 78 ff ff ff 	mov    %rax,-0x88(%rbp)
    frame->funcname = funcname;
    31c1:	48 8d 05 38 54 01 00 	lea    0x15438(%rip),%rax        # 18600 <write_config+0x50>
    31c8:	48 89 45 80          	mov    %rax,-0x80(%rbp)
    frame->context = NULL;
    frame->retval = NULL;
    arch_store_frame(&frame->arch)
    31cc:	48 89 e0             	mov    %rsp,%rax
    31cf:	48 89 45 88          	mov    %rax,-0x78(%rbp)
    31d3:	48 89 e8             	mov    %rbp,%rax
    31d6:	48 89 45 90          	mov    %rax,-0x70(%rbp)
    31da:	48 89 d8             	mov    %rbx,%rax
    31dd:	48 89 45 98          	mov    %rax,-0x68(%rbp)
    31e1:	48 89 f0             	mov    %rsi,%rax
    31e4:	48 89 45 a0          	mov    %rax,-0x60(%rbp)
    31e8:	48 89 f8             	mov    %rdi,%rax
    31eb:	48 89 45 a8          	mov    %rax,-0x58(%rbp)
    31ef:	4c 89 e0             	mov    %r12,%rax
    31f2:	48 89 45 b0          	mov    %rax,-0x50(%rbp)
    31f6:	4c 89 e8             	mov    %r13,%rax
    31f9:	48 89 45 b8          	mov    %rax,-0x48(%rbp)
    31fd:	4c 89 f0             	mov    %r14,%rax
    3200:	48 89 45 c0          	mov    %rax,-0x40(%rbp)
    3204:	4c 89 f8             	mov    %r15,%rax
    store_frame(StreamAttributesSetbyHandle);

    if (!handle || !attr) {
    3207:	48 85 ff             	test   %rdi,%rdi
    320a:	48 89 45 c8          	mov    %rax,-0x38(%rbp)
    320e:	0f 94 c3             	sete   %bl
    3211:	48 85 f6             	test   %rsi,%rsi
    3214:	0f 94 c0             	sete   %al
    3217:	08 c3                	or     %al,%bl
    3219:	75 48                	jne    3263 <DkStreamAttributesSetbyHandle+0xe3>
        notify_failure(PAL_ERROR_INVAL);
        return PAL_FALSE;
    }

    if (UNKNOWN_HANDLE(handle)) {
    321b:	48 63 17             	movslq (%rdi),%rdx
    321e:	8d 42 ff             	lea    -0x1(%rdx),%eax
    3221:	83 f8 10             	cmp    $0x10,%eax
    3224:	77 7a                	ja     32a0 <DkStreamAttributesSetbyHandle+0x120>
        notify_failure(PAL_ERROR_BADHANDLE);
        return PAL_FALSE;
    }

    const struct handle_ops * ops = HANDLE_OPS(handle);
    3226:	48 8b 05 d3 07 22 00 	mov    0x2207d3(%rip),%rax        # 223a00 <_DYNAMIC+0x218>
    322d:	4c 8b 34 d0          	mov    (%rax,%rdx,8),%r14

    assert(ops);
    3231:	4d 85 f6             	test   %r14,%r14
    3234:	0f 84 92 00 00 00    	je     32cc <DkStreamAttributesSetbyHandle+0x14c>

    if (!ops->attrsetbyhdl) {
    323a:	49 8b 46 78          	mov    0x78(%r14),%rax
    323e:	48 85 c0             	test   %rax,%rax
    3241:	74 7d                	je     32c0 <DkStreamAttributesSetbyHandle+0x140>
        notify_failure(PAL_ERROR_NOTSUPPORT);
        return PAL_FALSE;
    }

    int ret = ops->attrsetbyhdl(handle, attr);
    3243:	4c 89 ee             	mov    %r13,%rsi
    3246:	4c 89 e7             	mov    %r12,%rdi
    3249:	ff d0                	callq  *%rax

    if (ret < 0) {
    324b:	85 c0                	test   %eax,%eax
    324d:	78 31                	js     3280 <DkStreamAttributesSetbyHandle+0x100>
        notify_failure (-ret);
        return PAL_FALSE;
    }

    return PAL_TRUE;
    324f:	bb 01 00 00 00       	mov    $0x1,%ebx
}
    3254:	48 83 c4 70          	add    $0x70,%rsp
    3258:	89 d8                	mov    %ebx,%eax
    325a:	5b                   	pop    %rbx
    325b:	41 5c                	pop    %r12
    325d:	41 5d                	pop    %r13
    325f:	41 5e                	pop    %r14
    3261:	5d                   	pop    %rbp
    3262:	c3                   	retq   
DkStreamAttributesSetbyHandle (PAL_HANDLE handle, PAL_STREAM_ATTR * attr)
{
    store_frame(StreamAttributesSetbyHandle);

    if (!handle || !attr) {
        notify_failure(PAL_ERROR_INVAL);
    3263:	bf 04 00 00 00       	mov    $0x4,%edi
        return PAL_FALSE;
    3268:	31 db                	xor    %ebx,%ebx
DkStreamAttributesSetbyHandle (PAL_HANDLE handle, PAL_STREAM_ATTR * attr)
{
    store_frame(StreamAttributesSetbyHandle);

    if (!handle || !attr) {
        notify_failure(PAL_ERROR_INVAL);
    326a:	e8 e1 1b 01 00       	callq  14e50 <notify_failure>
        notify_failure (-ret);
        return PAL_FALSE;
    }

    return PAL_TRUE;
}
    326f:	48 83 c4 70          	add    $0x70,%rsp
    3273:	89 d8                	mov    %ebx,%eax
    3275:	5b                   	pop    %rbx
    3276:	41 5c                	pop    %r12
    3278:	41 5d                	pop    %r13
    327a:	41 5e                	pop    %r14
    327c:	5d                   	pop    %rbp
    327d:	c3                   	retq   
    327e:	66 90                	xchg   %ax,%ax
    }

    int ret = ops->attrsetbyhdl(handle, attr);

    if (ret < 0) {
        notify_failure (-ret);
    3280:	f7 d8                	neg    %eax
    3282:	48 63 f8             	movslq %eax,%rdi
    3285:	e8 c6 1b 01 00       	callq  14e50 <notify_failure>
        return PAL_FALSE;
    }

    return PAL_TRUE;
}
    328a:	48 83 c4 70          	add    $0x70,%rsp
    328e:	89 d8                	mov    %ebx,%eax
    3290:	5b                   	pop    %rbx
    3291:	41 5c                	pop    %r12
    3293:	41 5d                	pop    %r13
    3295:	41 5e                	pop    %r14
    3297:	5d                   	pop    %rbp
    3298:	c3                   	retq   
    3299:	0f 1f 80 00 00 00 00 	nopl   0x0(%rax)
        notify_failure(PAL_ERROR_INVAL);
        return PAL_FALSE;
    }

    if (UNKNOWN_HANDLE(handle)) {
        notify_failure(PAL_ERROR_BADHANDLE);
    32a0:	bf 07 00 00 00       	mov    $0x7,%edi
    32a5:	e8 a6 1b 01 00       	callq  14e50 <notify_failure>
        notify_failure (-ret);
        return PAL_FALSE;
    }

    return PAL_TRUE;
}
    32aa:	48 83 c4 70          	add    $0x70,%rsp
    32ae:	89 d8                	mov    %ebx,%eax
    32b0:	5b                   	pop    %rbx
    32b1:	41 5c                	pop    %r12
    32b3:	41 5d                	pop    %r13
    32b5:	41 5e                	pop    %r14
    32b7:	5d                   	pop    %rbp
    32b8:	c3                   	retq   
    32b9:	0f 1f 80 00 00 00 00 	nopl   0x0(%rax)
    const struct handle_ops * ops = HANDLE_OPS(handle);

    assert(ops);

    if (!ops->attrsetbyhdl) {
        notify_failure(PAL_ERROR_NOTSUPPORT);
    32c0:	bf 03 00 00 00       	mov    $0x3,%edi
    32c5:	e8 86 1b 01 00       	callq  14e50 <notify_failure>
        return PAL_FALSE;
    32ca:	eb 88                	jmp    3254 <DkStreamAttributesSetbyHandle+0xd4>
        return PAL_FALSE;
    }

    const struct handle_ops * ops = HANDLE_OPS(handle);

    assert(ops);
    32cc:	48 8d 15 4b 53 01 00 	lea    0x1534b(%rip),%rdx        # 1861e <write_config+0x6e>
    32d3:	48 8d 35 51 53 01 00 	lea    0x15351(%rip),%rsi        # 1862b <write_config+0x7b>
    32da:	48 8d 3d 57 54 01 00 	lea    0x15457(%rip),%rdi        # 18738 <write_config+0x188>
    32e1:	b9 d6 01 00 00       	mov    $0x1d6,%ecx
    32e6:	31 c0                	xor    %eax,%eax
    32e8:	e8 33 5b 00 00       	callq  8e20 <pal_printf>
    32ed:	e8 7e 37 00 00       	callq  6a70 <__assert>
    32f2:	bf 01 00 00 00       	mov    $0x1,%edi
    32f7:	e8 84 f2 00 00       	callq  12580 <_DkProcessExit>
    32fc:	e9 39 ff ff ff       	jmpq   323a <DkStreamAttributesSetbyHandle+0xba>
    3301:	66 66 66 66 66 66 2e 	nopw   %cs:0x0(%rax,%rax,1)
    3308:	0f 1f 84 00 00 00 00 
    330f:	00 

0000000000003310 <DkReceiveHandle>:
    Ans - Yes, Initialize and make it compatibile in the target process
   3. Should remalloc be done or the process shares the same references?
    Ans - Variables members have to allocated data again.
*/
PAL_HANDLE DkReceiveHandle (PAL_HANDLE handle)
{
    3310:	55                   	push   %rbp
void __store_frame (struct pal_frame * frame,
                    void * func, const char * funcname)
{
    frame->self = frame;
    frame->func = func;
    frame->funcname = funcname;
    3311:	48 8d 05 17 53 01 00 	lea    0x15317(%rip),%rax        # 1862f <write_config+0x7f>
    3318:	48 89 e5             	mov    %rsp,%rbp
    331b:	53                   	push   %rbx

static inline
void __store_frame (struct pal_frame * frame,
                    void * func, const char * funcname)
{
    frame->self = frame;
    331c:	48 8d 55 80          	lea    -0x80(%rbp),%rdx
    3320:	48 81 ec d8 00 00 00 	sub    $0xd8,%rsp
    frame->func = func;
    frame->funcname = funcname;
    3327:	48 89 45 90          	mov    %rax,-0x70(%rbp)
    frame->context = NULL;
    332b:	48 c7 45 e0 00 00 00 	movq   $0x0,-0x20(%rbp)
    3332:	00 

static inline
void __store_frame (struct pal_frame * frame,
                    void * func, const char * funcname)
{
    frame->self = frame;
    3333:	48 89 55 80          	mov    %rdx,-0x80(%rbp)
    frame->func = func;
    3337:	48 8b 15 12 07 22 00 	mov    0x220712(%rip),%rdx        # 223a50 <_DYNAMIC+0x268>
    frame->funcname = funcname;
    frame->context = NULL;
    frame->retval = NULL;
    333e:	48 c7 45 e8 00 00 00 	movq   $0x0,-0x18(%rbp)
    3345:	00 
static inline
void __store_frame (struct pal_frame * frame,
                    void * func, const char * funcname)
{
    frame->self = frame;
    frame->func = func;
    3346:	48 89 55 88          	mov    %rdx,-0x78(%rbp)
    frame->funcname = funcname;
    frame->context = NULL;
    frame->retval = NULL;
    arch_store_frame(&frame->arch)
    334a:	48 89 e2             	mov    %rsp,%rdx
    334d:	48 89 55 98          	mov    %rdx,-0x68(%rbp)
    3351:	48 89 ea             	mov    %rbp,%rdx
    3354:	48 89 55 a0          	mov    %rdx,-0x60(%rbp)
    3358:	48 89 da             	mov    %rbx,%rdx
    335b:	48 89 55 a8          	mov    %rdx,-0x58(%rbp)
    335f:	48 89 f2             	mov    %rsi,%rdx
    3362:	48 89 55 b0          	mov    %rdx,-0x50(%rbp)
    3366:	48 89 fa             	mov    %rdi,%rdx
    3369:	48 89 55 b8          	mov    %rdx,-0x48(%rbp)
    336d:	4c 89 e2             	mov    %r12,%rdx
    3370:	48 89 55 c0          	mov    %rdx,-0x40(%rbp)
    3374:	4c 89 ea             	mov    %r13,%rdx
    3377:	48 89 55 c8          	mov    %rdx,-0x38(%rbp)
    337b:	4c 89 f2             	mov    %r14,%rdx
    337e:	48 89 55 d0          	mov    %rdx,-0x30(%rbp)
    3382:	4c 89 fa             	mov    %r15,%rdx
    store_frame(ReceiveHandle);

    // return error if any of the handle is NULL
    if(handle == NULL) {
    3385:	48 85 ff             	test   %rdi,%rdi
    3388:	48 89 55 d8          	mov    %rdx,-0x28(%rbp)
    338c:	74 46                	je     33d4 <DkReceiveHandle+0xc4>

    // create a reference for the received PAL_HANDLE
    union pal_handle cargo;

    // call the internal function after validating input args
    int ret = _DkReceiveHandle(handle, &cargo);
    338e:	48 8d 9d 20 ff ff ff 	lea    -0xe0(%rbp),%rbx
    3395:	48 89 de             	mov    %rbx,%rsi
    3398:	e8 03 c9 00 00       	callq  fca0 <_DkReceiveHandle>

    // notify failure would have been called from other functions
    if(ret < 0) {
    339d:	85 c0                	test   %eax,%eax
    339f:	78 2f                	js     33d0 <DkReceiveHandle+0xc0>
                sizeof(handle->semaphore),
                sizeof(handle->event),
                sizeof(handle->gipc),
            };

    if (UNKNOWN_HANDLE(handle))
    33a1:	8b 85 20 ff ff ff    	mov    -0xe0(%rbp),%eax
        return 0;
    33a7:	31 f6                	xor    %esi,%esi
                sizeof(handle->semaphore),
                sizeof(handle->event),
                sizeof(handle->gipc),
            };

    if (UNKNOWN_HANDLE(handle))
    33a9:	8d 50 ff             	lea    -0x1(%rax),%edx
    33ac:	83 fa 10             	cmp    $0x10,%edx
    33af:	76 12                	jbe    33c3 <DkReceiveHandle+0xb3>
       return NULL;
    }

    return remalloc(&cargo, handle_size(&cargo));
    33b1:	48 89 df             	mov    %rbx,%rdi
    33b4:	e8 47 58 00 00       	callq  8c00 <remalloc>
}
    33b9:	48 81 c4 d8 00 00 00 	add    $0xd8,%rsp
    33c0:	5b                   	pop    %rbx
    33c1:	5d                   	pop    %rbp
    33c2:	c3                   	retq   
        return 0;
    else
        return handle_sizes[HANDLE_TYPE(handle)];
    33c3:	48 8d 15 b6 53 01 00 	lea    0x153b6(%rip),%rdx        # 18780 <handle_sizes.1924>
    33ca:	8b 34 82             	mov    (%rdx,%rax,4),%esi
    33cd:	eb e2                	jmp    33b1 <DkReceiveHandle+0xa1>
    33cf:	90                   	nop    
    // call the internal function after validating input args
    int ret = _DkReceiveHandle(handle, &cargo);

    // notify failure would have been called from other functions
    if(ret < 0) {
       return NULL;
    33d0:	31 c0                	xor    %eax,%eax
    33d2:	eb e5                	jmp    33b9 <DkReceiveHandle+0xa9>
{
    store_frame(ReceiveHandle);

    // return error if any of the handle is NULL
    if(handle == NULL) {
       notify_failure(PAL_ERROR_INVAL);
    33d4:	40 b7 04             	mov    $0x4,%dil
    33d7:	e8 74 1a 01 00       	callq  14e50 <notify_failure>
       return 0;
    33dc:	31 c0                	xor    %eax,%eax
    33de:	eb d9                	jmp    33b9 <DkReceiveHandle+0xa9>

00000000000033e0 <DkStreamGetName>:

/* PAL call DkStreamAttributesSetbyHandle: Set attribute of a stream by
   its handle, attr is memory given by user space. Return the pointer of attr
   if succeeded, or NULL if failed. Error code is notified */
PAL_NUM DkStreamGetName (PAL_HANDLE handle, PAL_BUF buffer, PAL_NUM size)
{
    33e0:	55                   	push   %rbp
    33e1:	48 89 e5             	mov    %rsp,%rbp
    33e4:	41 56                	push   %r14
    33e6:	41 55                	push   %r13

static inline
void __store_frame (struct pal_frame * frame,
                    void * func, const char * funcname)
{
    frame->self = frame;
    33e8:	48 8d 85 70 ff ff ff 	lea    -0x90(%rbp),%rax
    33ef:	41 54                	push   %r12
    33f1:	53                   	push   %rbx
    33f2:	49 89 f4             	mov    %rsi,%r12
    33f5:	48 89 d3             	mov    %rdx,%rbx
    33f8:	48 83 ec 70          	sub    $0x70,%rsp
    33fc:	48 89 85 70 ff ff ff 	mov    %rax,-0x90(%rbp)
    frame->func = func;
    3403:	48 8b 05 be 05 22 00 	mov    0x2205be(%rip),%rax        # 2239c8 <_DYNAMIC+0x1e0>
    frame->funcname = funcname;
    frame->context = NULL;
    340a:	48 c7 45 d0 00 00 00 	movq   $0x0,-0x30(%rbp)
    3411:	00 
    frame->retval = NULL;
    3412:	48 c7 45 d8 00 00 00 	movq   $0x0,-0x28(%rbp)
    3419:	00 
static inline
void __store_frame (struct pal_frame * frame,
                    void * func, const char * funcname)
{
    frame->self = frame;
    frame->func = func;
    341a:	48 89 85 78 ff ff ff 	mov    %rax,-0x88(%rbp)
    frame->funcname = funcname;
    3421:	48 8d 05 17 52 01 00 	lea    0x15217(%rip),%rax        # 1863f <write_config+0x8f>
    3428:	48 89 45 80          	mov    %rax,-0x80(%rbp)
    frame->context = NULL;
    frame->retval = NULL;
    arch_store_frame(&frame->arch)
    342c:	48 89 e0             	mov    %rsp,%rax
    342f:	48 89 45 88          	mov    %rax,-0x78(%rbp)
    3433:	48 89 e8             	mov    %rbp,%rax
    3436:	48 89 45 90          	mov    %rax,-0x70(%rbp)
    343a:	48 89 d8             	mov    %rbx,%rax
    343d:	48 89 45 98          	mov    %rax,-0x68(%rbp)
    3441:	48 89 f0             	mov    %rsi,%rax
    3444:	48 89 45 a0          	mov    %rax,-0x60(%rbp)
    3448:	48 89 f8             	mov    %rdi,%rax
    344b:	48 89 45 a8          	mov    %rax,-0x58(%rbp)
    344f:	4c 89 e0             	mov    %r12,%rax
    3452:	48 89 45 b0          	mov    %rax,-0x50(%rbp)
    3456:	4c 89 e8             	mov    %r13,%rax
    3459:	48 89 45 b8          	mov    %rax,-0x48(%rbp)
    345d:	4c 89 f0             	mov    %r14,%rax
    3460:	48 89 45 c0          	mov    %rax,-0x40(%rbp)
    3464:	4c 89 f8             	mov    %r15,%rax
    store_frame(StreamGetName);

    if (!handle || !buffer || !size) {
    3467:	48 85 f6             	test   %rsi,%rsi
    346a:	48 89 45 c8          	mov    %rax,-0x38(%rbp)
    346e:	0f 94 c2             	sete   %dl
    3471:	48 85 db             	test   %rbx,%rbx
    3474:	0f 94 c0             	sete   %al
    3477:	08 c2                	or     %al,%dl
    3479:	75 55                	jne    34d0 <DkStreamGetName+0xf0>
    347b:	48 85 ff             	test   %rdi,%rdi
    347e:	49 89 fd             	mov    %rdi,%r13
    3481:	74 4d                	je     34d0 <DkStreamGetName+0xf0>
        notify_failure(PAL_ERROR_INVAL);
        return 0;
    }

    if (UNKNOWN_HANDLE(handle)) {
    3483:	48 63 07             	movslq (%rdi),%rax
    3486:	8d 50 ff             	lea    -0x1(%rax),%edx
    3489:	83 fa 10             	cmp    $0x10,%edx
    348c:	77 62                	ja     34f0 <DkStreamGetName+0x110>
        notify_failure(PAL_ERROR_BADHANDLE);
        return 0;
    }

    const struct handle_ops * ops = HANDLE_OPS(handle);
    348e:	48 8b 15 6b 05 22 00 	mov    0x22056b(%rip),%rdx        # 223a00 <_DYNAMIC+0x218>
    3495:	4c 8b 34 c2          	mov    (%rdx,%rax,8),%r14

    assert(ops);
    3499:	4d 85 f6             	test   %r14,%r14
    349c:	0f 84 8c 00 00 00    	je     352e <DkStreamGetName+0x14e>

    /* if ops->getname is not defined, the stream cannot be queried */
    if (!ops->getname) {
    34a2:	49 8b 46 08          	mov    0x8(%r14),%rax
    34a6:	48 85 c0             	test   %rax,%rax
    34a9:	74 65                	je     3510 <DkStreamGetName+0x130>
        notify_failure(PAL_ERROR_NOTSUPPORT);
        return 0;
    }

    int ret = ops->getname(handle, buffer, size - 1);
    34ab:	8d 53 ff             	lea    -0x1(%rbx),%edx
    34ae:	4c 89 e6             	mov    %r12,%rsi
    34b1:	4c 89 ef             	mov    %r13,%rdi
    34b4:	ff d0                	callq  *%rax

    if (ret < 0) {
    34b6:	85 c0                	test   %eax,%eax
    34b8:	78 66                	js     3520 <DkStreamGetName+0x140>
        notify_failure(-ret);
        return 0;
    }

    ((char *)buffer)[ret] = 0;
    34ba:	48 98                	cltq   
    34bc:	41 c6 04 04 00       	movb   $0x0,(%r12,%rax,1)
    return ret;
}
    34c1:	48 83 c4 70          	add    $0x70,%rsp
    34c5:	5b                   	pop    %rbx
    34c6:	41 5c                	pop    %r12
    34c8:	41 5d                	pop    %r13
    34ca:	41 5e                	pop    %r14
    34cc:	5d                   	pop    %rbp
    34cd:	c3                   	retq   
    34ce:	66 90                	xchg   %ax,%ax
PAL_NUM DkStreamGetName (PAL_HANDLE handle, PAL_BUF buffer, PAL_NUM size)
{
    store_frame(StreamGetName);

    if (!handle || !buffer || !size) {
        notify_failure(PAL_ERROR_INVAL);
    34d0:	bf 04 00 00 00       	mov    $0x4,%edi
    34d5:	e8 76 19 01 00       	callq  14e50 <notify_failure>
        return 0;
    34da:	31 c0                	xor    %eax,%eax
        return 0;
    }

    ((char *)buffer)[ret] = 0;
    return ret;
}
    34dc:	48 83 c4 70          	add    $0x70,%rsp
    34e0:	5b                   	pop    %rbx
    34e1:	41 5c                	pop    %r12
    34e3:	41 5d                	pop    %r13
    34e5:	41 5e                	pop    %r14
    34e7:	5d                   	pop    %rbp
    34e8:	c3                   	retq   
    34e9:	0f 1f 80 00 00 00 00 	nopl   0x0(%rax)
        notify_failure(PAL_ERROR_INVAL);
        return 0;
    }

    if (UNKNOWN_HANDLE(handle)) {
        notify_failure(PAL_ERROR_BADHANDLE);
    34f0:	bf 07 00 00 00       	mov    $0x7,%edi
    34f5:	e8 56 19 01 00       	callq  14e50 <notify_failure>
        return 0;
    }

    ((char *)buffer)[ret] = 0;
    return ret;
}
    34fa:	48 83 c4 70          	add    $0x70,%rsp
        return 0;
    }

    if (UNKNOWN_HANDLE(handle)) {
        notify_failure(PAL_ERROR_BADHANDLE);
        return 0;
    34fe:	31 c0                	xor    %eax,%eax
        return 0;
    }

    ((char *)buffer)[ret] = 0;
    return ret;
}
    3500:	5b                   	pop    %rbx
    3501:	41 5c                	pop    %r12
    3503:	41 5d                	pop    %r13
    3505:	41 5e                	pop    %r14
    3507:	5d                   	pop    %rbp
    3508:	c3                   	retq   
    3509:	0f 1f 80 00 00 00 00 	nopl   0x0(%rax)

    assert(ops);

    /* if ops->getname is not defined, the stream cannot be queried */
    if (!ops->getname) {
        notify_failure(PAL_ERROR_NOTSUPPORT);
    3510:	bf 03 00 00 00       	mov    $0x3,%edi
    3515:	e8 36 19 01 00       	callq  14e50 <notify_failure>
        return 0;
    351a:	31 c0                	xor    %eax,%eax
    351c:	eb be                	jmp    34dc <DkStreamGetName+0xfc>
    351e:	66 90                	xchg   %ax,%ax
    }

    int ret = ops->getname(handle, buffer, size - 1);

    if (ret < 0) {
        notify_failure(-ret);
    3520:	f7 d8                	neg    %eax
    3522:	48 63 f8             	movslq %eax,%rdi
    3525:	e8 26 19 01 00       	callq  14e50 <notify_failure>
        return 0;
    352a:	31 c0                	xor    %eax,%eax
    352c:	eb ae                	jmp    34dc <DkStreamGetName+0xfc>
        return 0;
    }

    const struct handle_ops * ops = HANDLE_OPS(handle);

    assert(ops);
    352e:	48 8d 15 e9 50 01 00 	lea    0x150e9(%rip),%rdx        # 1861e <write_config+0x6e>
    3535:	48 8d 35 ef 50 01 00 	lea    0x150ef(%rip),%rsi        # 1862b <write_config+0x7b>
    353c:	48 8d 3d f5 51 01 00 	lea    0x151f5(%rip),%rdi        # 18738 <write_config+0x188>
    3543:	b9 fa 01 00 00       	mov    $0x1fa,%ecx
    3548:	31 c0                	xor    %eax,%eax
    354a:	e8 d1 58 00 00       	callq  8e20 <pal_printf>
    354f:	e8 1c 35 00 00       	callq  6a70 <__assert>
    3554:	bf 01 00 00 00       	mov    $0x1,%edi
    3559:	e8 22 f0 00 00       	callq  12580 <_DkProcessExit>
    355e:	e9 3f ff ff ff       	jmpq   34a2 <DkStreamGetName+0xc2>
    3563:	66 66 66 66 2e 0f 1f 	nopw   %cs:0x0(%rax,%rax,1)
    356a:	84 00 00 00 00 00 

0000000000003570 <DkStreamUnmap>:

/* PAL call DkStreamUnmap: Unmap memory mapped at an address. The memory has
   to be a stream map, and it got unmapped as a whole memory area. No
   return value. Error code is notified */
void DkStreamUnmap (PAL_BUF addr, PAL_NUM size)
{
    3570:	55                   	push   %rbp
    3571:	48 89 e5             	mov    %rsp,%rbp
    3574:	41 54                	push   %r12
    3576:	53                   	push   %rbx

static inline
void __store_frame (struct pal_frame * frame,
                    void * func, const char * funcname)
{
    frame->self = frame;
    3577:	48 8d 45 80          	lea    -0x80(%rbp),%rax
    357b:	48 83 ec 70          	sub    $0x70,%rsp
    frame->func = func;
    frame->funcname = funcname;
    frame->context = NULL;
    357f:	48 c7 45 e0 00 00 00 	movq   $0x0,-0x20(%rbp)
    3586:	00 
    frame->retval = NULL;
    3587:	48 c7 45 e8 00 00 00 	movq   $0x0,-0x18(%rbp)
    358e:	00 

static inline
void __store_frame (struct pal_frame * frame,
                    void * func, const char * funcname)
{
    frame->self = frame;
    358f:	48 89 45 80          	mov    %rax,-0x80(%rbp)
    frame->func = func;
    3593:	48 8b 05 46 04 22 00 	mov    0x220446(%rip),%rax        # 2239e0 <_DYNAMIC+0x1f8>
    359a:	48 89 45 88          	mov    %rax,-0x78(%rbp)
    frame->funcname = funcname;
    359e:	48 8d 05 aa 50 01 00 	lea    0x150aa(%rip),%rax        # 1864f <write_config+0x9f>
    35a5:	48 89 45 90          	mov    %rax,-0x70(%rbp)
    frame->context = NULL;
    frame->retval = NULL;
    arch_store_frame(&frame->arch)
    35a9:	48 89 e0             	mov    %rsp,%rax
    35ac:	48 89 45 98          	mov    %rax,-0x68(%rbp)
    35b0:	48 89 e8             	mov    %rbp,%rax
    35b3:	48 89 45 a0          	mov    %rax,-0x60(%rbp)
    35b7:	48 89 d8             	mov    %rbx,%rax
    35ba:	48 89 45 a8          	mov    %rax,-0x58(%rbp)
    35be:	48 89 f0             	mov    %rsi,%rax
    35c1:	48 89 45 b0          	mov    %rax,-0x50(%rbp)
    35c5:	48 89 f8             	mov    %rdi,%rax
    35c8:	48 89 45 b8          	mov    %rax,-0x48(%rbp)
    35cc:	4c 89 e0             	mov    %r12,%rax
    35cf:	48 89 45 c0          	mov    %rax,-0x40(%rbp)
    35d3:	4c 89 e8             	mov    %r13,%rax
    35d6:	48 89 45 c8          	mov    %rax,-0x38(%rbp)
    35da:	4c 89 f0             	mov    %r14,%rax
    35dd:	48 89 45 d0          	mov    %rax,-0x30(%rbp)
    35e1:	4c 89 f8             	mov    %r15,%rax
    store_frame(StreamUnmap);

    if (!addr) {
    35e4:	48 85 ff             	test   %rdi,%rdi
    35e7:	48 89 45 d8          	mov    %rax,-0x28(%rbp)
    35eb:	74 43                	je     3630 <DkStreamUnmap+0xc0>
    35ed:	48 89 fb             	mov    %rdi,%rbx
    35f0:	49 89 f4             	mov    %rsi,%r12
        notify_failure (PAL_ERROR_INVAL);
        return;
    }

    if (check_memory_overlap(addr, size)) {
    35f3:	e8 98 11 00 00       	callq  4790 <check_memory_overlap>
    35f8:	84 c0                	test   %al,%al
        notify_failure(PAL_ERROR_DENIED);
    35fa:	bf 06 00 00 00       	mov    $0x6,%edi
    if (!addr) {
        notify_failure (PAL_ERROR_INVAL);
        return;
    }

    if (check_memory_overlap(addr, size)) {
    35ff:	75 22                	jne    3623 <DkStreamUnmap+0xb3>
        notify_failure(PAL_ERROR_DENIED);
        return;
    }

    int ret = _DkStreamUnmap(addr, size);
    3601:	4c 89 e6             	mov    %r12,%rsi
    3604:	48 89 df             	mov    %rbx,%rdi
    3607:	e8 f4 c1 00 00       	callq  f800 <_DkStreamUnmap>

    if (ret < 0)
    360c:	85 c0                	test   %eax,%eax
    360e:	78 10                	js     3620 <DkStreamUnmap+0xb0>
        notify_failure(ret);
}
    3610:	48 83 c4 70          	add    $0x70,%rsp
    3614:	5b                   	pop    %rbx
    3615:	41 5c                	pop    %r12
    3617:	5d                   	pop    %rbp
    3618:	c3                   	retq   
    3619:	0f 1f 80 00 00 00 00 	nopl   0x0(%rax)
    }

    int ret = _DkStreamUnmap(addr, size);

    if (ret < 0)
        notify_failure(ret);
    3620:	48 63 f8             	movslq %eax,%rdi
}
    3623:	48 83 c4 70          	add    $0x70,%rsp
    3627:	5b                   	pop    %rbx
    3628:	41 5c                	pop    %r12
    362a:	5d                   	pop    %rbp
    }

    int ret = _DkStreamUnmap(addr, size);

    if (ret < 0)
        notify_failure(ret);
    362b:	e9 20 18 01 00       	jmpq   14e50 <notify_failure>
}
    3630:	48 83 c4 70          	add    $0x70,%rsp
void DkStreamUnmap (PAL_BUF addr, PAL_NUM size)
{
    store_frame(StreamUnmap);

    if (!addr) {
        notify_failure (PAL_ERROR_INVAL);
    3634:	40 b7 04             	mov    $0x4,%dil

    int ret = _DkStreamUnmap(addr, size);

    if (ret < 0)
        notify_failure(ret);
}
    3637:	5b                   	pop    %rbx
    3638:	41 5c                	pop    %r12
    363a:	5d                   	pop    %rbp
    }

    int ret = _DkStreamUnmap(addr, size);

    if (ret < 0)
        notify_failure(ret);
    363b:	e9 10 18 01 00       	jmpq   14e50 <notify_failure>

0000000000003640 <DkSendHandle>:
}

/* PAL call DkSendHandle: Write to a process handle.
   Return 1 on success and 0 on failure */
PAL_BOL DkSendHandle(PAL_HANDLE handle, PAL_HANDLE cargo)
{
    3640:	55                   	push   %rbp
    3641:	48 89 e5             	mov    %rsp,%rbp
    3644:	53                   	push   %rbx

static inline
void __store_frame (struct pal_frame * frame,
                    void * func, const char * funcname)
{
    frame->self = frame;
    3645:	48 8d 45 80          	lea    -0x80(%rbp),%rax
    3649:	48 83 ec 78          	sub    $0x78,%rsp
    frame->func = func;
    frame->funcname = funcname;
    frame->context = NULL;
    364d:	48 c7 45 e0 00 00 00 	movq   $0x0,-0x20(%rbp)
    3654:	00 
    frame->retval = NULL;
    3655:	48 c7 45 e8 00 00 00 	movq   $0x0,-0x18(%rbp)
    365c:	00 

static inline
void __store_frame (struct pal_frame * frame,
                    void * func, const char * funcname)
{
    frame->self = frame;
    365d:	48 89 45 80          	mov    %rax,-0x80(%rbp)
    frame->func = func;
    3661:	48 8b 05 18 03 22 00 	mov    0x220318(%rip),%rax        # 223980 <_DYNAMIC+0x198>
    3668:	48 89 45 88          	mov    %rax,-0x78(%rbp)
    frame->funcname = funcname;
    366c:	48 8d 05 ea 4f 01 00 	lea    0x14fea(%rip),%rax        # 1865d <write_config+0xad>
    3673:	48 89 45 90          	mov    %rax,-0x70(%rbp)
    frame->context = NULL;
    frame->retval = NULL;
    arch_store_frame(&frame->arch)
    3677:	48 89 e0             	mov    %rsp,%rax
    367a:	48 89 45 98          	mov    %rax,-0x68(%rbp)
    367e:	48 89 e8             	mov    %rbp,%rax
    3681:	48 89 45 a0          	mov    %rax,-0x60(%rbp)
    3685:	48 89 d8             	mov    %rbx,%rax
    3688:	48 89 45 a8          	mov    %rax,-0x58(%rbp)
    368c:	48 89 f0             	mov    %rsi,%rax
    368f:	48 89 45 b0          	mov    %rax,-0x50(%rbp)
    3693:	48 89 f8             	mov    %rdi,%rax
    3696:	48 89 45 b8          	mov    %rax,-0x48(%rbp)
    369a:	4c 89 e0             	mov    %r12,%rax
    369d:	48 89 45 c0          	mov    %rax,-0x40(%rbp)
    36a1:	4c 89 e8             	mov    %r13,%rax
    36a4:	48 89 45 c8          	mov    %rax,-0x38(%rbp)
    36a8:	4c 89 f0             	mov    %r14,%rax
    36ab:	48 89 45 d0          	mov    %rax,-0x30(%rbp)
    36af:	4c 89 f8             	mov    %r15,%rax
    store_frame(SendHandle);

    // Return error if any of the handle is NULL
    if (!handle || !cargo) {
    36b2:	48 85 ff             	test   %rdi,%rdi
    36b5:	48 89 45 d8          	mov    %rax,-0x28(%rbp)
    36b9:	0f 94 c3             	sete   %bl
    36bc:	48 85 f6             	test   %rsi,%rsi
    36bf:	0f 94 c0             	sete   %al
    36c2:	08 c3                	or     %al,%bl
    36c4:	75 1a                	jne    36e0 <DkSendHandle+0xa0>
        notify_failure(PAL_ERROR_INVAL);
        return PAL_FALSE;
    }

    // Call the internal function after validating input args
    int ret = _DkSendHandle(handle, cargo);
    36c6:	e8 75 c1 00 00       	callq  f840 <_DkSendHandle>

    if (ret < 0) {
    36cb:	85 c0                	test   %eax,%eax
    36cd:	78 26                	js     36f5 <DkSendHandle+0xb5>
        notify_failure(-ret);
        return PAL_FALSE;
    }

    return PAL_TRUE;
    36cf:	bb 01 00 00 00       	mov    $0x1,%ebx
}
    36d4:	48 83 c4 78          	add    $0x78,%rsp
    36d8:	89 d8                	mov    %ebx,%eax
    36da:	5b                   	pop    %rbx
    36db:	5d                   	pop    %rbp
    36dc:	c3                   	retq   
    36dd:	0f 1f 00             	nopl   (%rax)
{
    store_frame(SendHandle);

    // Return error if any of the handle is NULL
    if (!handle || !cargo) {
        notify_failure(PAL_ERROR_INVAL);
    36e0:	bf 04 00 00 00       	mov    $0x4,%edi
        return PAL_FALSE;
    36e5:	31 db                	xor    %ebx,%ebx
{
    store_frame(SendHandle);

    // Return error if any of the handle is NULL
    if (!handle || !cargo) {
        notify_failure(PAL_ERROR_INVAL);
    36e7:	e8 64 17 01 00       	callq  14e50 <notify_failure>
        notify_failure(-ret);
        return PAL_FALSE;
    }

    return PAL_TRUE;
}
    36ec:	48 83 c4 78          	add    $0x78,%rsp
    36f0:	89 d8                	mov    %ebx,%eax
    36f2:	5b                   	pop    %rbx
    36f3:	5d                   	pop    %rbp
    36f4:	c3                   	retq   

    // Call the internal function after validating input args
    int ret = _DkSendHandle(handle, cargo);

    if (ret < 0) {
        notify_failure(-ret);
    36f5:	f7 d8                	neg    %eax
    36f7:	48 63 f8             	movslq %eax,%rdi
    36fa:	e8 51 17 01 00       	callq  14e50 <notify_failure>
        return PAL_FALSE;
    }

    return PAL_TRUE;
}
    36ff:	48 83 c4 78          	add    $0x78,%rsp
    3703:	89 d8                	mov    %ebx,%eax
    3705:	5b                   	pop    %rbx
    3706:	5d                   	pop    %rbp
    3707:	c3                   	retq   
    3708:	0f 1f 84 00 00 00 00 	nopl   0x0(%rax,%rax,1)
    370f:	00 

0000000000003710 <parse_stream_uri>:

/* parse_stream_uri scan the uri, seperate prefix and search for
   stream handler which will open or access the stream */
int parse_stream_uri (const char ** uri, const char ** prefix,
                      struct handle_ops ** ops)
{
    3710:	55                   	push   %rbp
    3711:	48 89 e5             	mov    %rsp,%rbp
    3714:	41 57                	push   %r15
    3716:	41 56                	push   %r14
    3718:	41 55                	push   %r13
    371a:	41 54                	push   %r12
    371c:	53                   	push   %rbx
    371d:	48 83 ec 08          	sub    $0x8,%rsp
    const char * p, * u = (*uri);
    3721:	4c 8b 27             	mov    (%rdi),%r12

    for (p = u ; (*p) && (*p) != ':' ; p++);
    3724:	41 0f b6 0c 24       	movzbl (%r12),%ecx
    3729:	4c 89 e3             	mov    %r12,%rbx
    372c:	80 f9 3a             	cmp    $0x3a,%cl
    372f:	75 0e                	jne    373f <parse_stream_uri+0x2f>
    3731:	eb 10                	jmp    3743 <parse_stream_uri+0x33>
    3733:	48 83 c3 01          	add    $0x1,%rbx
    3737:	0f b6 0b             	movzbl (%rbx),%ecx
    373a:	80 f9 3a             	cmp    $0x3a,%cl
    373d:	74 04                	je     3743 <parse_stream_uri+0x33>
    373f:	84 c9                	test   %cl,%cl
    3741:	75 f0                	jne    3733 <parse_stream_uri+0x23>

    if ((*p) != ':')
    3743:	80 f9 3a             	cmp    $0x3a,%cl
        return -PAL_ERROR_INVAL;
    3746:	b8 fc ff ff ff       	mov    $0xfffffffc,%eax
{
    const char * p, * u = (*uri);

    for (p = u ; (*p) && (*p) != ':' ; p++);

    if ((*p) != ':')
    374b:	0f 85 97 00 00 00    	jne    37e8 <parse_stream_uri+0xd8>
        return -PAL_ERROR_INVAL;

    struct handle_ops * hops = NULL;

    switch (p - u) {
    3751:	48 89 d8             	mov    %rbx,%rax
    3754:	49 89 d5             	mov    %rdx,%r13
    3757:	49 89 f7             	mov    %rsi,%r15
    375a:	4c 29 e0             	sub    %r12,%rax
    375d:	49 89 fe             	mov    %rdi,%r14
    3760:	48 83 f8 04          	cmp    $0x4,%rax
    3764:	0f 84 ea 00 00 00    	je     3854 <parse_stream_uri+0x144>
    376a:	7e 35                	jle    37a1 <parse_stream_uri+0x91>
    376c:	48 83 f8 07          	cmp    $0x7,%rax
    3770:	0f 84 ba 00 00 00    	je     3830 <parse_stream_uri+0x120>
    3776:	48 83 f8 08          	cmp    $0x8,%rax
    377a:	0f 85 93 00 00 00    	jne    3813 <parse_stream_uri+0x103>
            else if (memcmp(u, "udp.srv", 7) == 0)
                hops = &udp_ops;
            break;

        case 8:
            if (memcmp(u, "pipe.srv", 8) == 0)
    3780:	48 8d 35 03 4f 01 00 	lea    0x14f03(%rip),%rsi        # 1868a <write_config+0xda>
    3787:	ba 08 00 00 00       	mov    $0x8,%edx
    378c:	4c 89 e7             	mov    %r12,%rdi
    378f:	e8 7c 2b 01 00       	callq  16310 <memcmp>
    3794:	85 c0                	test   %eax,%eax
    3796:	75 7b                	jne    3813 <parse_stream_uri+0x103>

        case 4:
            if (memcmp(u, "file", 4) == 0)
                hops = &file_ops;
            else if (memcmp(u, "pipe", 4) == 0)
                hops = &pipe_ops;
    3798:	48 8b 05 c1 02 22 00 	mov    0x2202c1(%rip),%rax        # 223a60 <_DYNAMIC+0x278>
    379f:	eb 29                	jmp    37ca <parse_stream_uri+0xba>
    if ((*p) != ':')
        return -PAL_ERROR_INVAL;

    struct handle_ops * hops = NULL;

    switch (p - u) {
    37a1:	48 83 f8 03          	cmp    $0x3,%rax
    37a5:	75 6c                	jne    3813 <parse_stream_uri+0x103>
        case 3:
            if (memcmp(u, "dir", 3) == 0)
    37a7:	48 8d 35 bc 4e 01 00 	lea    0x14ebc(%rip),%rsi        # 1866a <write_config+0xba>
    37ae:	ba 03 00 00 00       	mov    $0x3,%edx
    37b3:	4c 89 e7             	mov    %r12,%rdi
    37b6:	e8 55 2b 01 00       	callq  16310 <memcmp>
    37bb:	85 c0                	test   %eax,%eax
    37bd:	0f 85 bc 00 00 00    	jne    387f <parse_stream_uri+0x16f>
                hops = &dir_ops;
    37c3:	48 8b 05 66 02 22 00 	mov    0x220266(%rip),%rax        # 223a30 <_DYNAMIC+0x248>
    }

    if (!hops)
        return -PAL_ERROR_NOTSUPPORT;

    *uri = p + 1;
    37ca:	48 83 c3 01          	add    $0x1,%rbx

    if (prefix)
    37ce:	4d 85 ff             	test   %r15,%r15
    }

    if (!hops)
        return -PAL_ERROR_NOTSUPPORT;

    *uri = p + 1;
    37d1:	49 89 1e             	mov    %rbx,(%r14)

    if (prefix)
    37d4:	74 03                	je     37d9 <parse_stream_uri+0xc9>
        *prefix = u;
    37d6:	4d 89 27             	mov    %r12,(%r15)

    if (ops)
    37d9:	4d 85 ed             	test   %r13,%r13
    37dc:	0f 84 96 00 00 00    	je     3878 <parse_stream_uri+0x168>
        *ops = hops;
    37e2:	49 89 45 00          	mov    %rax,0x0(%r13)

    return 0;
    37e6:	31 c0                	xor    %eax,%eax
}
    37e8:	48 83 c4 08          	add    $0x8,%rsp
    37ec:	5b                   	pop    %rbx
    37ed:	41 5c                	pop    %r12
    37ef:	41 5d                	pop    %r13
    37f1:	41 5e                	pop    %r14
    37f3:	41 5f                	pop    %r15
    37f5:	5d                   	pop    %rbp
    37f6:	c3                   	retq   
            break;

        case 7:
            if (memcmp(u, "tcp.srv", 7) == 0)
                hops = &tcp_ops;
            else if (memcmp(u, "udp.srv", 7) == 0)
    37f7:	48 8d 35 84 4e 01 00 	lea    0x14e84(%rip),%rsi        # 18682 <write_config+0xd2>
    37fe:	ba 07 00 00 00       	mov    $0x7,%edx
    3803:	4c 89 e7             	mov    %r12,%rdi
    3806:	e8 05 2b 01 00       	callq  16310 <memcmp>
    380b:	85 c0                	test   %eax,%eax
    380d:	0f 84 11 01 00 00    	je     3924 <parse_stream_uri+0x214>

    if (ops)
        *ops = hops;

    return 0;
}
    3813:	48 83 c4 08          	add    $0x8,%rsp
        default:
            break;
    }

    if (!hops)
        return -PAL_ERROR_NOTSUPPORT;
    3817:	b8 fd ff ff ff       	mov    $0xfffffffd,%eax

    if (ops)
        *ops = hops;

    return 0;
}
    381c:	5b                   	pop    %rbx
    381d:	41 5c                	pop    %r12
    381f:	41 5d                	pop    %r13
    3821:	41 5e                	pop    %r14
    3823:	41 5f                	pop    %r15
    3825:	5d                   	pop    %rbp
    3826:	c3                   	retq   
    3827:	66 0f 1f 84 00 00 00 	nopw   0x0(%rax,%rax,1)
    382e:	00 00 
            else if (memcmp(u, "gipc", 4) == 0)
                hops = &gipc_ops;
            break;

        case 7:
            if (memcmp(u, "tcp.srv", 7) == 0)
    3830:	48 8d 35 43 4e 01 00 	lea    0x14e43(%rip),%rsi        # 1867a <write_config+0xca>
    3837:	ba 07 00 00 00       	mov    $0x7,%edx
    383c:	4c 89 e7             	mov    %r12,%rdi
    383f:	e8 cc 2a 01 00       	callq  16310 <memcmp>
    3844:	85 c0                	test   %eax,%eax
    3846:	75 af                	jne    37f7 <parse_stream_uri+0xe7>
    switch (p - u) {
        case 3:
            if (memcmp(u, "dir", 3) == 0)
                hops = &dir_ops;
            else if (memcmp(u, "tcp", 3) == 0)
                hops = &tcp_ops;
    3848:	48 8b 05 a1 02 22 00 	mov    0x2202a1(%rip),%rax        # 223af0 <_DYNAMIC+0x308>
    384f:	e9 76 ff ff ff       	jmpq   37ca <parse_stream_uri+0xba>
            else if (memcmp(u, "dev", 3) == 0)
                hops = &dev_ops;
            break;

        case 4:
            if (memcmp(u, "file", 4) == 0)
    3854:	48 8d 35 5a c0 01 00 	lea    0x1c05a(%rip),%rsi        # 1f8b5 <sys_nerr_internal+0x779>
    385b:	ba 04 00 00 00       	mov    $0x4,%edx
    3860:	4c 89 e7             	mov    %r12,%rdi
    3863:	e8 a8 2a 01 00       	callq  16310 <memcmp>
    3868:	85 c0                	test   %eax,%eax
    386a:	75 74                	jne    38e0 <parse_stream_uri+0x1d0>
                hops = &file_ops;
    386c:	48 8b 05 fd 01 22 00 	mov    0x2201fd(%rip),%rax        # 223a70 <_DYNAMIC+0x288>
    3873:	e9 52 ff ff ff       	jmpq   37ca <parse_stream_uri+0xba>
        *prefix = u;

    if (ops)
        *ops = hops;

    return 0;
    3878:	31 c0                	xor    %eax,%eax
    387a:	e9 69 ff ff ff       	jmpq   37e8 <parse_stream_uri+0xd8>

    switch (p - u) {
        case 3:
            if (memcmp(u, "dir", 3) == 0)
                hops = &dir_ops;
            else if (memcmp(u, "tcp", 3) == 0)
    387f:	48 8d 35 e8 4d 01 00 	lea    0x14de8(%rip),%rsi        # 1866e <write_config+0xbe>
    3886:	ba 03 00 00 00       	mov    $0x3,%edx
    388b:	4c 89 e7             	mov    %r12,%rdi
    388e:	e8 7d 2a 01 00       	callq  16310 <memcmp>
    3893:	85 c0                	test   %eax,%eax
    3895:	74 b1                	je     3848 <parse_stream_uri+0x138>
                hops = &tcp_ops;
            else if (memcmp(u, "udp", 3) == 0)
    3897:	48 8d 35 d4 4d 01 00 	lea    0x14dd4(%rip),%rsi        # 18672 <write_config+0xc2>
    389e:	ba 03 00 00 00       	mov    $0x3,%edx
    38a3:	4c 89 e7             	mov    %r12,%rdi
    38a6:	e8 65 2a 01 00       	callq  16310 <memcmp>
    38ab:	85 c0                	test   %eax,%eax
    38ad:	74 75                	je     3924 <parse_stream_uri+0x214>
                hops = &udp_ops;
            else if (memcmp(u, "dev", 3) == 0)
    38af:	48 8d 35 c0 4d 01 00 	lea    0x14dc0(%rip),%rsi        # 18676 <write_config+0xc6>
    38b6:	ba 03 00 00 00       	mov    $0x3,%edx
    38bb:	4c 89 e7             	mov    %r12,%rdi
    38be:	e8 4d 2a 01 00       	callq  16310 <memcmp>
    38c3:	85 c0                	test   %eax,%eax
    38c5:	0f 85 48 ff ff ff    	jne    3813 <parse_stream_uri+0x103>
                hops = &dev_ops;
    38cb:	48 8b 05 86 01 22 00 	mov    0x220186(%rip),%rax        # 223a58 <_DYNAMIC+0x270>
    38d2:	e9 f3 fe ff ff       	jmpq   37ca <parse_stream_uri+0xba>
    38d7:	66 0f 1f 84 00 00 00 	nopw   0x0(%rax,%rax,1)
    38de:	00 00 
            break;

        case 4:
            if (memcmp(u, "file", 4) == 0)
                hops = &file_ops;
            else if (memcmp(u, "pipe", 4) == 0)
    38e0:	48 8d 35 88 ba 01 00 	lea    0x1ba88(%rip),%rsi        # 1f36f <sys_nerr_internal+0x233>
    38e7:	ba 04 00 00 00       	mov    $0x4,%edx
    38ec:	4c 89 e7             	mov    %r12,%rdi
    38ef:	e8 1c 2a 01 00       	callq  16310 <memcmp>
    38f4:	85 c0                	test   %eax,%eax
    38f6:	0f 84 9c fe ff ff    	je     3798 <parse_stream_uri+0x88>
                hops = &pipe_ops;
            else if (memcmp(u, "gipc", 4) == 0)
    38fc:	48 8d 35 c0 b4 01 00 	lea    0x1b4c0(%rip),%rsi        # 1edc3 <slab_levels+0x5b23>
    3903:	ba 04 00 00 00       	mov    $0x4,%edx
    3908:	4c 89 e7             	mov    %r12,%rdi
    390b:	e8 00 2a 01 00       	callq  16310 <memcmp>
    3910:	85 c0                	test   %eax,%eax
    3912:	0f 85 fb fe ff ff    	jne    3813 <parse_stream_uri+0x103>
                hops = &gipc_ops;
    3918:	48 8b 05 c9 01 22 00 	mov    0x2201c9(%rip),%rax        # 223ae8 <_DYNAMIC+0x300>
    391f:	e9 a6 fe ff ff       	jmpq   37ca <parse_stream_uri+0xba>
            if (memcmp(u, "dir", 3) == 0)
                hops = &dir_ops;
            else if (memcmp(u, "tcp", 3) == 0)
                hops = &tcp_ops;
            else if (memcmp(u, "udp", 3) == 0)
                hops = &udp_ops;
    3924:	48 8b 05 3d 02 22 00 	mov    0x22023d(%rip),%rax        # 223b68 <_DYNAMIC+0x380>
    392b:	e9 9a fe ff ff       	jmpq   37ca <parse_stream_uri+0xba>

0000000000003930 <_DkStreamOpen>:
/* _DkStreamOpen for internal use. Open stream based on uri.
   access/share/create/options are the same flags defined for
   DkStreamOpen. */
int _DkStreamOpen (PAL_HANDLE * handle, const char * uri,
                   int access, int share, int create, int options)
{
    3930:	55                   	push   %rbp
    3931:	48 89 e5             	mov    %rsp,%rbp
    3934:	41 57                	push   %r15
    3936:	41 56                	push   %r14
    3938:	41 55                	push   %r13
    393a:	41 54                	push   %r12
    393c:	41 89 d5             	mov    %edx,%r13d
    393f:	53                   	push   %rbx
    3940:	49 89 fc             	mov    %rdi,%r12
    struct handle_ops * ops = NULL;
    const char * type = NULL;
    int ret = parse_stream_uri(&uri, &type, &ops);
    3943:	48 8d 55 c0          	lea    -0x40(%rbp),%rdx
    3947:	48 8d 7d b8          	lea    -0x48(%rbp),%rdi
/* _DkStreamOpen for internal use. Open stream based on uri.
   access/share/create/options are the same flags defined for
   DkStreamOpen. */
int _DkStreamOpen (PAL_HANDLE * handle, const char * uri,
                   int access, int share, int create, int options)
{
    394b:	41 89 ce             	mov    %ecx,%r14d
    394e:	44 89 c3             	mov    %r8d,%ebx
    3951:	48 83 ec 28          	sub    $0x28,%rsp
    3955:	48 89 75 b8          	mov    %rsi,-0x48(%rbp)
    struct handle_ops * ops = NULL;
    const char * type = NULL;
    int ret = parse_stream_uri(&uri, &type, &ops);
    3959:	48 8d 75 c8          	lea    -0x38(%rbp),%rsi
/* _DkStreamOpen for internal use. Open stream based on uri.
   access/share/create/options are the same flags defined for
   DkStreamOpen. */
int _DkStreamOpen (PAL_HANDLE * handle, const char * uri,
                   int access, int share, int create, int options)
{
    395d:	45 89 cf             	mov    %r9d,%r15d
    struct handle_ops * ops = NULL;
    3960:	48 c7 45 c0 00 00 00 	movq   $0x0,-0x40(%rbp)
    3967:	00 
    const char * type = NULL;
    3968:	48 c7 45 c8 00 00 00 	movq   $0x0,-0x38(%rbp)
    396f:	00 
    int ret = parse_stream_uri(&uri, &type, &ops);
    3970:	e8 9b fd ff ff       	callq  3710 <parse_stream_uri>

    if (ret < 0)
    3975:	85 c0                	test   %eax,%eax
    3977:	78 3a                	js     39b3 <_DkStreamOpen+0x83>
        return ret;

    assert(ops && ops->open);
    3979:	48 8b 45 c0          	mov    -0x40(%rbp),%rax
    397d:	48 85 c0             	test   %rax,%rax
    3980:	74 40                	je     39c2 <_DkStreamOpen+0x92>
    3982:	48 8b 40 10          	mov    0x10(%rax),%rax
    3986:	48 85 c0             	test   %rax,%rax
    3989:	74 37                	je     39c2 <_DkStreamOpen+0x92>

#ifndef __linux__
    if(create != 0)
	    create = PAL_CREAT_TRY;
    398b:	85 db                	test   %ebx,%ebx
    398d:	ba 00 02 00 00       	mov    $0x200,%edx
#endif	    
    return ops->open(handle, type, uri, access, share, create, options);
    3992:	44 89 e9             	mov    %r13d,%ecx

    assert(ops && ops->open);

#ifndef __linux__
    if(create != 0)
	    create = PAL_CREAT_TRY;
    3995:	0f 45 da             	cmovne %edx,%ebx
#endif	    
    return ops->open(handle, type, uri, access, share, create, options);
    3998:	48 83 ec 08          	sub    $0x8,%rsp
    399c:	48 8b 55 b8          	mov    -0x48(%rbp),%rdx
    39a0:	41 57                	push   %r15
    39a2:	41 89 d9             	mov    %ebx,%r9d
    39a5:	45 89 f0             	mov    %r14d,%r8d
    39a8:	48 8b 75 c8          	mov    -0x38(%rbp),%rsi
    39ac:	4c 89 e7             	mov    %r12,%rdi
    39af:	ff d0                	callq  *%rax
    39b1:	5a                   	pop    %rdx
    39b2:	59                   	pop    %rcx
}
    39b3:	48 8d 65 d8          	lea    -0x28(%rbp),%rsp
    39b7:	5b                   	pop    %rbx
    39b8:	41 5c                	pop    %r12
    39ba:	41 5d                	pop    %r13
    39bc:	41 5e                	pop    %r14
    39be:	41 5f                	pop    %r15
    39c0:	5d                   	pop    %rbp
    39c1:	c3                   	retq   
    int ret = parse_stream_uri(&uri, &type, &ops);

    if (ret < 0)
        return ret;

    assert(ops && ops->open);
    39c2:	48 8d 15 55 4c 01 00 	lea    0x14c55(%rip),%rdx        # 1861e <write_config+0x6e>
    39c9:	48 8d 35 c3 4c 01 00 	lea    0x14cc3(%rip),%rsi        # 18693 <write_config+0xe3>
    39d0:	48 8d 3d 61 4d 01 00 	lea    0x14d61(%rip),%rdi        # 18738 <write_config+0x188>
    39d7:	b9 98 00 00 00       	mov    $0x98,%ecx
    39dc:	31 c0                	xor    %eax,%eax
    39de:	e8 3d 54 00 00       	callq  8e20 <pal_printf>
    39e3:	e8 88 30 00 00       	callq  6a70 <__assert>
    39e8:	bf 01 00 00 00       	mov    $0x1,%edi
    39ed:	e8 8e eb 00 00       	callq  12580 <_DkProcessExit>
    39f2:	48 8b 45 c0          	mov    -0x40(%rbp),%rax
    39f6:	48 8b 40 10          	mov    0x10(%rax),%rax
    39fa:	eb 8f                	jmp    398b <_DkStreamOpen+0x5b>
    39fc:	0f 1f 40 00          	nopl   0x0(%rax)

0000000000003a00 <DkStreamOpen>:
   create/options flags. DkStreamOpen return a PAL_HANDLE to access the
   stream, or return NULL. Error code is notified. */
PAL_HANDLE
DkStreamOpen (PAL_STR uri, PAL_FLG access, PAL_FLG share, PAL_FLG create,
              PAL_FLG options)
{
    3a00:	55                   	push   %rbp
    3a01:	48 89 f8             	mov    %rdi,%rax
    3a04:	48 89 e5             	mov    %rsp,%rbp
    3a07:	48 83 c4 80          	add    $0xffffffffffffff80,%rsp

static inline
void __store_frame (struct pal_frame * frame,
                    void * func, const char * funcname)
{
    frame->self = frame;
    3a0b:	48 8d 7d 90          	lea    -0x70(%rbp),%rdi
    frame->func = func;
    frame->funcname = funcname;
    frame->context = NULL;
    3a0f:	48 c7 45 f0 00 00 00 	movq   $0x0,-0x10(%rbp)
    3a16:	00 
    frame->retval = NULL;
    3a17:	48 c7 45 f8 00 00 00 	movq   $0x0,-0x8(%rbp)
    3a1e:	00 

static inline
void __store_frame (struct pal_frame * frame,
                    void * func, const char * funcname)
{
    frame->self = frame;
    3a1f:	48 89 7d 90          	mov    %rdi,-0x70(%rbp)
    frame->func = func;
    3a23:	48 8b 3d ee ff 21 00 	mov    0x21ffee(%rip),%rdi        # 223a18 <_DYNAMIC+0x230>
    3a2a:	48 89 7d 98          	mov    %rdi,-0x68(%rbp)
    frame->funcname = funcname;
    3a2e:	48 8d 3d 6f 4c 01 00 	lea    0x14c6f(%rip),%rdi        # 186a4 <write_config+0xf4>
    3a35:	48 89 7d a0          	mov    %rdi,-0x60(%rbp)
    frame->context = NULL;
    frame->retval = NULL;
    arch_store_frame(&frame->arch)
    3a39:	48 89 e7             	mov    %rsp,%rdi
    3a3c:	48 89 7d a8          	mov    %rdi,-0x58(%rbp)
    3a40:	48 89 ef             	mov    %rbp,%rdi
    3a43:	48 89 7d b0          	mov    %rdi,-0x50(%rbp)
    3a47:	48 89 df             	mov    %rbx,%rdi
    3a4a:	48 89 7d b8          	mov    %rdi,-0x48(%rbp)
    3a4e:	48 89 f7             	mov    %rsi,%rdi
    3a51:	48 89 7d c0          	mov    %rdi,-0x40(%rbp)
    3a55:	48 89 ff             	mov    %rdi,%rdi
    3a58:	48 89 7d c8          	mov    %rdi,-0x38(%rbp)
    3a5c:	4c 89 e7             	mov    %r12,%rdi
    3a5f:	48 89 7d d0          	mov    %rdi,-0x30(%rbp)
    3a63:	4c 89 ef             	mov    %r13,%rdi
    3a66:	48 89 7d d8          	mov    %rdi,-0x28(%rbp)
    3a6a:	4c 89 f7             	mov    %r14,%rdi
    3a6d:	48 89 7d e0          	mov    %rdi,-0x20(%rbp)
    3a71:	4c 89 ff             	mov    %r15,%rdi
    3a74:	48 89 7d e8          	mov    %rdi,-0x18(%rbp)
    store_frame(StreamOpen);

    PAL_HANDLE handle;
    int ret = _DkStreamOpen(&handle, uri, access, share, create, options);
    3a78:	48 8d 7d 88          	lea    -0x78(%rbp),%rdi
    3a7c:	45 89 c1             	mov    %r8d,%r9d
    3a7f:	41 89 c8             	mov    %ecx,%r8d
    3a82:	89 d1                	mov    %edx,%ecx
    3a84:	89 f2                	mov    %esi,%edx
    3a86:	48 89 c6             	mov    %rax,%rsi
    3a89:	e8 a2 fe ff ff       	callq  3930 <_DkStreamOpen>

    if (ret < 0) {
    3a8e:	85 c0                	test   %eax,%eax
    3a90:	78 0e                	js     3aa0 <DkStreamOpen+0xa0>
        notify_failure (-ret);
        return NULL;
    }

    return handle;
    3a92:	48 8b 45 88          	mov    -0x78(%rbp),%rax
}
    3a96:	c9                   	leaveq 
    3a97:	c3                   	retq   
    3a98:	0f 1f 84 00 00 00 00 	nopl   0x0(%rax,%rax,1)
    3a9f:	00 

    PAL_HANDLE handle;
    int ret = _DkStreamOpen(&handle, uri, access, share, create, options);

    if (ret < 0) {
        notify_failure (-ret);
    3aa0:	f7 d8                	neg    %eax
    3aa2:	48 63 f8             	movslq %eax,%rdi
    3aa5:	e8 a6 13 01 00       	callq  14e50 <notify_failure>
        return NULL;
    3aaa:	31 c0                	xor    %eax,%eax
    }

    return handle;
}
    3aac:	c9                   	leaveq 
    3aad:	c3                   	retq   
    3aae:	66 90                	xchg   %ax,%ax

0000000000003ab0 <_DkStreamWaitForClient>:

int _DkStreamWaitForClient(PAL_HANDLE handle, PAL_HANDLE * client)
{
    3ab0:	48 63 07             	movslq (%rdi),%rax
    3ab3:	55                   	push   %rbp
    3ab4:	48 89 e5             	mov    %rsp,%rbp
    if (UNKNOWN_HANDLE(handle))
    3ab7:	8d 50 ff             	lea    -0x1(%rax),%edx
    3aba:	83 fa 10             	cmp    $0x10,%edx
    3abd:	77 21                	ja     3ae0 <_DkStreamWaitForClient+0x30>
        return -PAL_ERROR_BADHANDLE;

    const struct handle_ops * ops = HANDLE_OPS(handle);
    3abf:	48 8b 15 3a ff 21 00 	mov    0x21ff3a(%rip),%rdx        # 223a00 <_DYNAMIC+0x218>
    3ac6:	48 8b 04 c2          	mov    (%rdx,%rax,8),%rax

    /* No ops or ops->delete being defined, inferring the handle can never
       be deleted */
    if (!ops || !ops->waitforclient)
    3aca:	48 85 c0             	test   %rax,%rax
    3acd:	74 21                	je     3af0 <_DkStreamWaitForClient+0x40>
    3acf:	48 8b 40 60          	mov    0x60(%rax),%rax
    3ad3:	48 85 c0             	test   %rax,%rax
    3ad6:	74 18                	je     3af0 <_DkStreamWaitForClient+0x40>
        return -PAL_ERROR_NOTSERVER;

    return ops->waitforclient(handle, client);
}
    3ad8:	5d                   	pop    %rbp
    /* No ops or ops->delete being defined, inferring the handle can never
       be deleted */
    if (!ops || !ops->waitforclient)
        return -PAL_ERROR_NOTSERVER;

    return ops->waitforclient(handle, client);
    3ad9:	ff e0                	jmpq   *%rax
    3adb:	0f 1f 44 00 00       	nopl   0x0(%rax,%rax,1)
}

int _DkStreamWaitForClient(PAL_HANDLE handle, PAL_HANDLE * client)
{
    if (UNKNOWN_HANDLE(handle))
        return -PAL_ERROR_BADHANDLE;
    3ae0:	b8 f9 ff ff ff       	mov    $0xfffffff9,%eax
       be deleted */
    if (!ops || !ops->waitforclient)
        return -PAL_ERROR_NOTSERVER;

    return ops->waitforclient(handle, client);
}
    3ae5:	5d                   	pop    %rbp
    3ae6:	c3                   	retq   
    3ae7:	66 0f 1f 84 00 00 00 	nopw   0x0(%rax,%rax,1)
    3aee:	00 00 
    const struct handle_ops * ops = HANDLE_OPS(handle);

    /* No ops or ops->delete being defined, inferring the handle can never
       be deleted */
    if (!ops || !ops->waitforclient)
        return -PAL_ERROR_NOTSERVER;
    3af0:	b8 eb ff ff ff       	mov    $0xffffffeb,%eax

    return ops->waitforclient(handle, client);
}
    3af5:	5d                   	pop    %rbp
    3af6:	c3                   	retq   
    3af7:	66 0f 1f 84 00 00 00 	nopw   0x0(%rax,%rax,1)
    3afe:	00 00 

0000000000003b00 <DkStreamWaitForClient>:

PAL_HANDLE
DkStreamWaitForClient (PAL_HANDLE handle)
{
    3b00:	55                   	push   %rbp
    3b01:	48 89 e5             	mov    %rsp,%rbp
    3b04:	48 83 c4 80          	add    $0xffffffffffffff80,%rsp

static inline
void __store_frame (struct pal_frame * frame,
                    void * func, const char * funcname)
{
    frame->self = frame;
    3b08:	48 8d 45 90          	lea    -0x70(%rbp),%rax
    frame->func = func;
    frame->funcname = funcname;
    frame->context = NULL;
    3b0c:	48 c7 45 f0 00 00 00 	movq   $0x0,-0x10(%rbp)
    3b13:	00 
    frame->retval = NULL;
    3b14:	48 c7 45 f8 00 00 00 	movq   $0x0,-0x8(%rbp)
    3b1b:	00 

static inline
void __store_frame (struct pal_frame * frame,
                    void * func, const char * funcname)
{
    frame->self = frame;
    3b1c:	48 89 45 90          	mov    %rax,-0x70(%rbp)
    frame->func = func;
    3b20:	48 8b 05 61 ff 21 00 	mov    0x21ff61(%rip),%rax        # 223a88 <_DYNAMIC+0x2a0>
    3b27:	48 89 45 98          	mov    %rax,-0x68(%rbp)
    frame->funcname = funcname;
    3b2b:	48 8d 05 7f 4b 01 00 	lea    0x14b7f(%rip),%rax        # 186b1 <write_config+0x101>
    3b32:	48 89 45 a0          	mov    %rax,-0x60(%rbp)
    frame->context = NULL;
    frame->retval = NULL;
    arch_store_frame(&frame->arch)
    3b36:	48 89 e0             	mov    %rsp,%rax
    3b39:	48 89 45 a8          	mov    %rax,-0x58(%rbp)
    3b3d:	48 89 e8             	mov    %rbp,%rax
    3b40:	48 89 45 b0          	mov    %rax,-0x50(%rbp)
    3b44:	48 89 d8             	mov    %rbx,%rax
    3b47:	48 89 45 b8          	mov    %rax,-0x48(%rbp)
    3b4b:	48 89 f0             	mov    %rsi,%rax
    3b4e:	48 89 45 c0          	mov    %rax,-0x40(%rbp)
    3b52:	48 89 f8             	mov    %rdi,%rax
    3b55:	48 89 45 c8          	mov    %rax,-0x38(%rbp)
    3b59:	4c 89 e0             	mov    %r12,%rax
    3b5c:	48 89 45 d0          	mov    %rax,-0x30(%rbp)
    3b60:	4c 89 e8             	mov    %r13,%rax
    3b63:	48 89 45 d8          	mov    %rax,-0x28(%rbp)
    3b67:	4c 89 f0             	mov    %r14,%rax
    3b6a:	48 89 45 e0          	mov    %rax,-0x20(%rbp)
    3b6e:	4c 89 f8             	mov    %r15,%rax
    store_frame(StreamWaitForClient);

    union pal_handle *client;

    int ret = _DkStreamWaitForClient(handle, &client);
    3b71:	48 8d 75 88          	lea    -0x78(%rbp),%rsi
    3b75:	48 89 45 e8          	mov    %rax,-0x18(%rbp)
    3b79:	e8 32 ff ff ff       	callq  3ab0 <_DkStreamWaitForClient>

    if (ret < 0) {
    3b7e:	85 c0                	test   %eax,%eax
    3b80:	78 0e                	js     3b90 <DkStreamWaitForClient+0x90>
        notify_failure (-ret);
        return NULL;
    }

    return client;
    3b82:	48 8b 45 88          	mov    -0x78(%rbp),%rax
}
    3b86:	c9                   	leaveq 
    3b87:	c3                   	retq   
    3b88:	0f 1f 84 00 00 00 00 	nopl   0x0(%rax,%rax,1)
    3b8f:	00 
    union pal_handle *client;

    int ret = _DkStreamWaitForClient(handle, &client);

    if (ret < 0) {
        notify_failure (-ret);
    3b90:	f7 d8                	neg    %eax
    3b92:	48 63 f8             	movslq %eax,%rdi
    3b95:	e8 b6 12 01 00       	callq  14e50 <notify_failure>
        return NULL;
    3b9a:	31 c0                	xor    %eax,%eax
    }

    return client;
}
    3b9c:	c9                   	leaveq 
    3b9d:	c3                   	retq   
    3b9e:	66 90                	xchg   %ax,%ax

0000000000003ba0 <_DkStreamDelete>:

/* _DkStreamDelete for internal use. This function will explicit delete
   the stream. For example, file will be deleted, socket witll be
   disconnected, etc */
int _DkStreamDelete (PAL_HANDLE handle, int access)
{
    3ba0:	48 63 07             	movslq (%rdi),%rax
    3ba3:	55                   	push   %rbp
    3ba4:	48 89 e5             	mov    %rsp,%rbp
    if (UNKNOWN_HANDLE(handle))
    3ba7:	8d 50 ff             	lea    -0x1(%rax),%edx
    3baa:	83 fa 10             	cmp    $0x10,%edx
    3bad:	77 21                	ja     3bd0 <_DkStreamDelete+0x30>
        return -PAL_ERROR_BADHANDLE;

    const struct handle_ops * ops = HANDLE_OPS(handle);
    3baf:	48 8b 15 4a fe 21 00 	mov    0x21fe4a(%rip),%rdx        # 223a00 <_DYNAMIC+0x218>
    3bb6:	48 8b 04 c2          	mov    (%rdx,%rax,8),%rax

    /* No ops or ops->delete being defined, inferring the handle can never
       be deleted */
    if (!ops || !ops->delete)
    3bba:	48 85 c0             	test   %rax,%rax
    3bbd:	74 21                	je     3be0 <_DkStreamDelete+0x40>
    3bbf:	48 8b 40 40          	mov    0x40(%rax),%rax
    3bc3:	48 85 c0             	test   %rax,%rax
    3bc6:	74 18                	je     3be0 <_DkStreamDelete+0x40>
        return -PAL_ERROR_NOTSUPPORT;

    return ops->delete(handle, access);
}
    3bc8:	5d                   	pop    %rbp
    /* No ops or ops->delete being defined, inferring the handle can never
       be deleted */
    if (!ops || !ops->delete)
        return -PAL_ERROR_NOTSUPPORT;

    return ops->delete(handle, access);
    3bc9:	ff e0                	jmpq   *%rax
    3bcb:	0f 1f 44 00 00       	nopl   0x0(%rax,%rax,1)
   the stream. For example, file will be deleted, socket witll be
   disconnected, etc */
int _DkStreamDelete (PAL_HANDLE handle, int access)
{
    if (UNKNOWN_HANDLE(handle))
        return -PAL_ERROR_BADHANDLE;
    3bd0:	b8 f9 ff ff ff       	mov    $0xfffffff9,%eax
       be deleted */
    if (!ops || !ops->delete)
        return -PAL_ERROR_NOTSUPPORT;

    return ops->delete(handle, access);
}
    3bd5:	5d                   	pop    %rbp
    3bd6:	c3                   	retq   
    3bd7:	66 0f 1f 84 00 00 00 	nopw   0x0(%rax,%rax,1)
    3bde:	00 00 
    const struct handle_ops * ops = HANDLE_OPS(handle);

    /* No ops or ops->delete being defined, inferring the handle can never
       be deleted */
    if (!ops || !ops->delete)
        return -PAL_ERROR_NOTSUPPORT;
    3be0:	b8 fd ff ff ff       	mov    $0xfffffffd,%eax

    return ops->delete(handle, access);
}
    3be5:	5d                   	pop    %rbp
    3be6:	c3                   	retq   
    3be7:	66 0f 1f 84 00 00 00 	nopw   0x0(%rax,%rax,1)
    3bee:	00 00 

0000000000003bf0 <DkStreamDelete>:

/* PAL call DkStreamDelete: Explicitly delete stream as given handle. No
   return value, error code is notified. */
void DkStreamDelete (PAL_HANDLE handle, PAL_FLG access)
{
    3bf0:	55                   	push   %rbp
    3bf1:	48 89 e5             	mov    %rsp,%rbp
    3bf4:	48 83 ec 70          	sub    $0x70,%rsp

static inline
void __store_frame (struct pal_frame * frame,
                    void * func, const char * funcname)
{
    frame->self = frame;
    3bf8:	48 8d 45 90          	lea    -0x70(%rbp),%rax
    frame->func = func;
    frame->funcname = funcname;
    frame->context = NULL;
    3bfc:	48 c7 45 f0 00 00 00 	movq   $0x0,-0x10(%rbp)
    3c03:	00 
    frame->retval = NULL;
    3c04:	48 c7 45 f8 00 00 00 	movq   $0x0,-0x8(%rbp)
    3c0b:	00 

static inline
void __store_frame (struct pal_frame * frame,
                    void * func, const char * funcname)
{
    frame->self = frame;
    3c0c:	48 89 45 90          	mov    %rax,-0x70(%rbp)
    frame->func = func;
    3c10:	48 8b 05 79 ff 21 00 	mov    0x21ff79(%rip),%rax        # 223b90 <_DYNAMIC+0x3a8>
    3c17:	48 89 45 98          	mov    %rax,-0x68(%rbp)
    frame->funcname = funcname;
    3c1b:	48 8d 05 a5 4a 01 00 	lea    0x14aa5(%rip),%rax        # 186c7 <write_config+0x117>
    3c22:	48 89 45 a0          	mov    %rax,-0x60(%rbp)
    frame->context = NULL;
    frame->retval = NULL;
    arch_store_frame(&frame->arch)
    3c26:	48 89 e0             	mov    %rsp,%rax
    3c29:	48 89 45 a8          	mov    %rax,-0x58(%rbp)
    3c2d:	48 89 e8             	mov    %rbp,%rax
    3c30:	48 89 45 b0          	mov    %rax,-0x50(%rbp)
    3c34:	48 89 d8             	mov    %rbx,%rax
    3c37:	48 89 45 b8          	mov    %rax,-0x48(%rbp)
    3c3b:	48 89 f0             	mov    %rsi,%rax
    3c3e:	48 89 45 c0          	mov    %rax,-0x40(%rbp)
    3c42:	48 89 f8             	mov    %rdi,%rax
    3c45:	48 89 45 c8          	mov    %rax,-0x38(%rbp)
    3c49:	4c 89 e0             	mov    %r12,%rax
    3c4c:	48 89 45 d0          	mov    %rax,-0x30(%rbp)
    3c50:	4c 89 e8             	mov    %r13,%rax
    3c53:	48 89 45 d8          	mov    %rax,-0x28(%rbp)
    3c57:	4c 89 f0             	mov    %r14,%rax
    3c5a:	48 89 45 e0          	mov    %rax,-0x20(%rbp)
    3c5e:	4c 89 f8             	mov    %r15,%rax
    store_frame(StreamDelete);

    if (handle == NULL) {
    3c61:	48 85 ff             	test   %rdi,%rdi
    3c64:	48 89 45 e8          	mov    %rax,-0x18(%rbp)
    3c68:	74 16                	je     3c80 <DkStreamDelete+0x90>
        notify_failure (PAL_ERROR_INVAL);
        return;
    }

    int ret = _DkStreamDelete(handle, access);
    3c6a:	e8 31 ff ff ff       	callq  3ba0 <_DkStreamDelete>

    if (ret < 0)
    3c6f:	85 c0                	test   %eax,%eax
    3c71:	78 02                	js     3c75 <DkStreamDelete+0x85>
        notify_failure(-ret);
}
    3c73:	c9                   	leaveq 
    3c74:	c3                   	retq   
    3c75:	c9                   	leaveq 
    }

    int ret = _DkStreamDelete(handle, access);

    if (ret < 0)
        notify_failure(-ret);
    3c76:	f7 d8                	neg    %eax
    3c78:	48 63 f8             	movslq %eax,%rdi
    3c7b:	e9 d0 11 01 00       	jmpq   14e50 <notify_failure>
}
    3c80:	c9                   	leaveq 
void DkStreamDelete (PAL_HANDLE handle, PAL_FLG access)
{
    store_frame(StreamDelete);

    if (handle == NULL) {
        notify_failure (PAL_ERROR_INVAL);
    3c81:	40 b7 04             	mov    $0x4,%dil
    3c84:	e9 c7 11 01 00       	jmpq   14e50 <notify_failure>
    3c89:	0f 1f 80 00 00 00 00 	nopl   0x0(%rax)

0000000000003c90 <_DkStreamRead>:

/* _DkStreamRead for internal use. Read from stream as absolute offset.
   The actual behavior of stream read is defined by handler */
int _DkStreamRead (PAL_HANDLE handle, int offset, int count, void * buf,
                   char * addr, int addrlen)
{
    3c90:	48 63 07             	movslq (%rdi),%rax
    3c93:	55                   	push   %rbp
    3c94:	48 89 e5             	mov    %rsp,%rbp
    if (UNKNOWN_HANDLE(handle))
    3c97:	44 8d 50 ff          	lea    -0x1(%rax),%r10d
    3c9b:	41 83 fa 10          	cmp    $0x10,%r10d
    3c9f:	77 3f                	ja     3ce0 <_DkStreamRead+0x50>
        return -PAL_ERROR_BADHANDLE;

    const struct handle_ops * ops = HANDLE_OPS(handle);
    3ca1:	4c 8b 15 58 fd 21 00 	mov    0x21fd58(%rip),%r10        # 223a00 <_DYNAMIC+0x218>
    3ca8:	49 8b 04 c2          	mov    (%r10,%rax,8),%rax

    /* if ops or ops->read is not defined, it infers that the stream can
       never be read */
    if (!ops)
    3cac:	48 85 c0             	test   %rax,%rax
    3caf:	74 4f                	je     3d00 <_DkStreamRead+0x70>
        return -PAL_ERROR_NOTSUPPORT;

    if (!count)
    3cb1:	85 d2                	test   %edx,%edx
    3cb3:	74 3b                	je     3cf0 <_DkStreamRead+0x60>
        return -PAL_ERROR_ZEROSIZE;

    int ret;
    // pal_printf("Raj--> %d",handle->file.fd);
    if (addr) {
    3cb5:	4d 85 c0             	test   %r8,%r8
    3cb8:	74 17                	je     3cd1 <_DkStreamRead+0x41>
        if (!ops->readbyaddr)
    3cba:	48 8b 40 28          	mov    0x28(%rax),%rax
    3cbe:	48 85 c0             	test   %rax,%rax
    3cc1:	74 3d                	je     3d00 <_DkStreamRead+0x70>
            return -PAL_ERROR_NOTSUPPORT;

        ret = ops->readbyaddr(handle, offset, count, buf, addr, addrlen);
    3cc3:	ff d0                	callq  *%rax
            return -PAL_ERROR_NOTSUPPORT;

        ret = ops->read(handle, offset, count, buf);
    }

    return ret ? : -PAL_ERROR_ENDOFSTREAM;
    3cc5:	85 c0                	test   %eax,%eax
    3cc7:	ba ec ff ff ff       	mov    $0xffffffec,%edx
    3ccc:	0f 44 c2             	cmove  %edx,%eax
}
    3ccf:	5d                   	pop    %rbp
    3cd0:	c3                   	retq   
        if (!ops->readbyaddr)
            return -PAL_ERROR_NOTSUPPORT;

        ret = ops->readbyaddr(handle, offset, count, buf, addr, addrlen);
    } else {
        if (!ops->read)
    3cd1:	48 8b 40 18          	mov    0x18(%rax),%rax
    3cd5:	48 85 c0             	test   %rax,%rax
    3cd8:	74 26                	je     3d00 <_DkStreamRead+0x70>
            return -PAL_ERROR_NOTSUPPORT;

        ret = ops->read(handle, offset, count, buf);
    3cda:	ff d0                	callq  *%rax
    3cdc:	eb e7                	jmp    3cc5 <_DkStreamRead+0x35>
    3cde:	66 90                	xchg   %ax,%ax
   The actual behavior of stream read is defined by handler */
int _DkStreamRead (PAL_HANDLE handle, int offset, int count, void * buf,
                   char * addr, int addrlen)
{
    if (UNKNOWN_HANDLE(handle))
        return -PAL_ERROR_BADHANDLE;
    3ce0:	b8 f9 ff ff ff       	mov    $0xfffffff9,%eax

        ret = ops->read(handle, offset, count, buf);
    }

    return ret ? : -PAL_ERROR_ENDOFSTREAM;
}
    3ce5:	5d                   	pop    %rbp
    3ce6:	c3                   	retq   
    3ce7:	66 0f 1f 84 00 00 00 	nopw   0x0(%rax,%rax,1)
    3cee:	00 00 
       never be read */
    if (!ops)
        return -PAL_ERROR_NOTSUPPORT;

    if (!count)
        return -PAL_ERROR_ZEROSIZE;
    3cf0:	b8 e9 ff ff ff       	mov    $0xffffffe9,%eax

        ret = ops->read(handle, offset, count, buf);
    }

    return ret ? : -PAL_ERROR_ENDOFSTREAM;
}
    3cf5:	5d                   	pop    %rbp
    3cf6:	c3                   	retq   
    3cf7:	66 0f 1f 84 00 00 00 	nopw   0x0(%rax,%rax,1)
    3cfe:	00 00 
    const struct handle_ops * ops = HANDLE_OPS(handle);

    /* if ops or ops->read is not defined, it infers that the stream can
       never be read */
    if (!ops)
        return -PAL_ERROR_NOTSUPPORT;
    3d00:	b8 fd ff ff ff       	mov    $0xfffffffd,%eax

        ret = ops->read(handle, offset, count, buf);
    }

    return ret ? : -PAL_ERROR_ENDOFSTREAM;
}
    3d05:	5d                   	pop    %rbp
    3d06:	c3                   	retq   
    3d07:	66 0f 1f 84 00 00 00 	nopw   0x0(%rax,%rax,1)
    3d0e:	00 00 

0000000000003d10 <DkStreamRead>:
/* PAL call DkStreamRead: Read from stream at absolute offset. Return number
   of bytes if succeeded, or 0 for failure. Error code is notified. */
PAL_NUM
DkStreamRead (PAL_HANDLE handle, PAL_NUM offset, PAL_NUM count,
              PAL_BUF buffer, PAL_BUF source, PAL_NUM size)
{
    3d10:	55                   	push   %rbp
    3d11:	48 89 e5             	mov    %rsp,%rbp
    3d14:	48 83 ec 70          	sub    $0x70,%rsp

static inline
void __store_frame (struct pal_frame * frame,
                    void * func, const char * funcname)
{
    frame->self = frame;
    3d18:	48 8d 45 90          	lea    -0x70(%rbp),%rax
    frame->func = func;
    frame->funcname = funcname;
    frame->context = NULL;
    3d1c:	48 c7 45 f0 00 00 00 	movq   $0x0,-0x10(%rbp)
    3d23:	00 
    frame->retval = NULL;
    3d24:	48 c7 45 f8 00 00 00 	movq   $0x0,-0x8(%rbp)
    3d2b:	00 

static inline
void __store_frame (struct pal_frame * frame,
                    void * func, const char * funcname)
{
    frame->self = frame;
    3d2c:	48 89 45 90          	mov    %rax,-0x70(%rbp)
    frame->func = func;
    3d30:	48 8b 05 e1 fd 21 00 	mov    0x21fde1(%rip),%rax        # 223b18 <_DYNAMIC+0x330>
    3d37:	48 89 45 98          	mov    %rax,-0x68(%rbp)
    frame->funcname = funcname;
    3d3b:	48 8d 05 94 49 01 00 	lea    0x14994(%rip),%rax        # 186d6 <write_config+0x126>
    3d42:	48 89 45 a0          	mov    %rax,-0x60(%rbp)
    frame->context = NULL;
    frame->retval = NULL;
    arch_store_frame(&frame->arch)
    3d46:	48 89 e0             	mov    %rsp,%rax
    3d49:	48 89 45 a8          	mov    %rax,-0x58(%rbp)
    3d4d:	48 89 e8             	mov    %rbp,%rax
    3d50:	48 89 45 b0          	mov    %rax,-0x50(%rbp)
    3d54:	48 89 d8             	mov    %rbx,%rax
    3d57:	48 89 45 b8          	mov    %rax,-0x48(%rbp)
    3d5b:	48 89 f0             	mov    %rsi,%rax
    3d5e:	48 89 45 c0          	mov    %rax,-0x40(%rbp)
    3d62:	48 89 f8             	mov    %rdi,%rax
    3d65:	48 89 45 c8          	mov    %rax,-0x38(%rbp)
    3d69:	4c 89 e0             	mov    %r12,%rax
    3d6c:	48 89 45 d0          	mov    %rax,-0x30(%rbp)
    3d70:	4c 89 e8             	mov    %r13,%rax
    3d73:	48 89 45 d8          	mov    %rax,-0x28(%rbp)
    3d77:	4c 89 f0             	mov    %r14,%rax
    3d7a:	48 89 45 e0          	mov    %rax,-0x20(%rbp)
    3d7e:	4c 89 f8             	mov    %r15,%rax
    store_frame(StreamRead);

    if (!handle || !buffer) {
    3d81:	48 85 ff             	test   %rdi,%rdi
    3d84:	48 89 45 e8          	mov    %rax,-0x18(%rbp)
    3d88:	74 36                	je     3dc0 <DkStreamRead+0xb0>
    3d8a:	48 85 c9             	test   %rcx,%rcx
    3d8d:	74 31                	je     3dc0 <DkStreamRead+0xb0>
        notify_failure (PAL_ERROR_INVAL);
        return 0;
    }

    int ret = _DkStreamRead(handle, offset, count, buffer,
    3d8f:	4d 85 c0             	test   %r8,%r8
    3d92:	b8 00 00 00 00       	mov    $0x0,%eax
    3d97:	41 0f 45 c1          	cmovne %r9d,%eax
    3d9b:	4d 85 c9             	test   %r9,%r9
    3d9e:	41 b9 00 00 00 00    	mov    $0x0,%r9d
    3da4:	4d 0f 44 c1          	cmove  %r9,%r8
    3da8:	41 89 c1             	mov    %eax,%r9d
    3dab:	e8 e0 fe ff ff       	callq  3c90 <_DkStreamRead>
                            size ? (char *) source : NULL,
                            source ? size : 0);

    if (ret < 0) {
    3db0:	85 c0                	test   %eax,%eax
    3db2:	78 1c                	js     3dd0 <DkStreamRead+0xc0>
    3db4:	48 98                	cltq   
        notify_failure(-ret);
        ret = 0;
    }

    return ret;
}
    3db6:	c9                   	leaveq 
    3db7:	c3                   	retq   
    3db8:	0f 1f 84 00 00 00 00 	nopl   0x0(%rax,%rax,1)
    3dbf:	00 
              PAL_BUF buffer, PAL_BUF source, PAL_NUM size)
{
    store_frame(StreamRead);

    if (!handle || !buffer) {
        notify_failure (PAL_ERROR_INVAL);
    3dc0:	bf 04 00 00 00       	mov    $0x4,%edi
    3dc5:	e8 86 10 01 00       	callq  14e50 <notify_failure>
        return 0;
    3dca:	31 c0                	xor    %eax,%eax
        notify_failure(-ret);
        ret = 0;
    }

    return ret;
}
    3dcc:	c9                   	leaveq 
    3dcd:	c3                   	retq   
    3dce:	66 90                	xchg   %ax,%ax
    int ret = _DkStreamRead(handle, offset, count, buffer,
                            size ? (char *) source : NULL,
                            source ? size : 0);

    if (ret < 0) {
        notify_failure(-ret);
    3dd0:	f7 d8                	neg    %eax
    3dd2:	48 63 f8             	movslq %eax,%rdi
    3dd5:	e8 76 10 01 00       	callq  14e50 <notify_failure>
    3dda:	31 c0                	xor    %eax,%eax
        ret = 0;
    }

    return ret;
}
    3ddc:	c9                   	leaveq 
    3ddd:	c3                   	retq   
    3dde:	66 90                	xchg   %ax,%ax

0000000000003de0 <_DkStreamWrite>:

/* _DkStreamWrite for internal use, write to stream at absolute offset.
   The actual behavior of stream write is defined by handler */
int _DkStreamWrite (PAL_HANDLE handle, int offset, int count, const void * buf,
                    const char * addr, int addrlen)
{
    3de0:	48 63 07             	movslq (%rdi),%rax
    3de3:	55                   	push   %rbp
    3de4:	48 89 e5             	mov    %rsp,%rbp
    if (UNKNOWN_HANDLE(handle))
    3de7:	44 8d 50 ff          	lea    -0x1(%rax),%r10d
    3deb:	41 83 fa 10          	cmp    $0x10,%r10d
    3def:	77 3f                	ja     3e30 <_DkStreamWrite+0x50>
        return -PAL_ERROR_BADHANDLE;

    const struct handle_ops * ops = HANDLE_OPS(handle);
    3df1:	4c 8b 15 08 fc 21 00 	mov    0x21fc08(%rip),%r10        # 223a00 <_DYNAMIC+0x218>
    3df8:	49 8b 04 c2          	mov    (%r10,%rax,8),%rax

    if (!ops)
    3dfc:	48 85 c0             	test   %rax,%rax
    3dff:	74 4f                	je     3e50 <_DkStreamWrite+0x70>
        return -PAL_ERROR_NOTSUPPORT;

    if (!count)
    3e01:	85 d2                	test   %edx,%edx
    3e03:	74 3b                	je     3e40 <_DkStreamWrite+0x60>
        return -PAL_ERROR_ZEROSIZE;

    int ret;

    if (addr) {
    3e05:	4d 85 c0             	test   %r8,%r8
    3e08:	74 17                	je     3e21 <_DkStreamWrite+0x41>
        if (!ops->writebyaddr)
    3e0a:	48 8b 40 30          	mov    0x30(%rax),%rax
    3e0e:	48 85 c0             	test   %rax,%rax
    3e11:	74 3d                	je     3e50 <_DkStreamWrite+0x70>
            return -PAL_ERROR_NOTSUPPORT;

        ret = ops->writebyaddr(handle, offset, count, buf, addr, addrlen);
    3e13:	ff d0                	callq  *%rax
            return -PAL_ERROR_NOTSUPPORT;

        ret = ops->write(handle, offset, count, buf);
    }

    return ret ? : -PAL_ERROR_ENDOFSTREAM;
    3e15:	85 c0                	test   %eax,%eax
    3e17:	ba ec ff ff ff       	mov    $0xffffffec,%edx
    3e1c:	0f 44 c2             	cmove  %edx,%eax
}
    3e1f:	5d                   	pop    %rbp
    3e20:	c3                   	retq   
        if (!ops->writebyaddr)
            return -PAL_ERROR_NOTSUPPORT;

        ret = ops->writebyaddr(handle, offset, count, buf, addr, addrlen);
    } else {
        if (!ops->write)
    3e21:	48 8b 40 20          	mov    0x20(%rax),%rax
    3e25:	48 85 c0             	test   %rax,%rax
    3e28:	74 26                	je     3e50 <_DkStreamWrite+0x70>
            return -PAL_ERROR_NOTSUPPORT;

        ret = ops->write(handle, offset, count, buf);
    3e2a:	ff d0                	callq  *%rax
    3e2c:	eb e7                	jmp    3e15 <_DkStreamWrite+0x35>
    3e2e:	66 90                	xchg   %ax,%ax
   The actual behavior of stream write is defined by handler */
int _DkStreamWrite (PAL_HANDLE handle, int offset, int count, const void * buf,
                    const char * addr, int addrlen)
{
    if (UNKNOWN_HANDLE(handle))
        return -PAL_ERROR_BADHANDLE;
    3e30:	b8 f9 ff ff ff       	mov    $0xfffffff9,%eax

        ret = ops->write(handle, offset, count, buf);
    }

    return ret ? : -PAL_ERROR_ENDOFSTREAM;
}
    3e35:	5d                   	pop    %rbp
    3e36:	c3                   	retq   
    3e37:	66 0f 1f 84 00 00 00 	nopw   0x0(%rax,%rax,1)
    3e3e:	00 00 

    if (!ops)
        return -PAL_ERROR_NOTSUPPORT;

    if (!count)
        return -PAL_ERROR_ZEROSIZE;
    3e40:	b8 e9 ff ff ff       	mov    $0xffffffe9,%eax

        ret = ops->write(handle, offset, count, buf);
    }

    return ret ? : -PAL_ERROR_ENDOFSTREAM;
}
    3e45:	5d                   	pop    %rbp
    3e46:	c3                   	retq   
    3e47:	66 0f 1f 84 00 00 00 	nopw   0x0(%rax,%rax,1)
    3e4e:	00 00 
        return -PAL_ERROR_BADHANDLE;

    const struct handle_ops * ops = HANDLE_OPS(handle);

    if (!ops)
        return -PAL_ERROR_NOTSUPPORT;
    3e50:	b8 fd ff ff ff       	mov    $0xfffffffd,%eax

        ret = ops->write(handle, offset, count, buf);
    }

    return ret ? : -PAL_ERROR_ENDOFSTREAM;
}
    3e55:	5d                   	pop    %rbp
    3e56:	c3                   	retq   
    3e57:	66 0f 1f 84 00 00 00 	nopw   0x0(%rax,%rax,1)
    3e5e:	00 00 

0000000000003e60 <DkStreamWrite>:
/* PAL call DkStreamWrite: Write to stream at absolute offset. Return number
   of bytes if succeeded, or 0 for failure. Error code is notified. */
PAL_NUM
DkStreamWrite (PAL_HANDLE handle, PAL_NUM offset, PAL_NUM count,
               const PAL_PTR buffer, PAL_STR dest)
{
    3e60:	55                   	push   %rbp
    3e61:	48 89 e5             	mov    %rsp,%rbp
    3e64:	53                   	push   %rbx
    3e65:	48 89 fb             	mov    %rdi,%rbx

static inline
void __store_frame (struct pal_frame * frame,
                    void * func, const char * funcname)
{
    frame->self = frame;
    3e68:	48 8d 45 80          	lea    -0x80(%rbp),%rax
    3e6c:	48 81 ec 98 00 00 00 	sub    $0x98,%rsp
    frame->func = func;
    frame->funcname = funcname;
    frame->context = NULL;
    3e73:	48 c7 45 e0 00 00 00 	movq   $0x0,-0x20(%rbp)
    3e7a:	00 
    frame->retval = NULL;
    3e7b:	48 c7 45 e8 00 00 00 	movq   $0x0,-0x18(%rbp)
    3e82:	00 

static inline
void __store_frame (struct pal_frame * frame,
                    void * func, const char * funcname)
{
    frame->self = frame;
    3e83:	48 89 45 80          	mov    %rax,-0x80(%rbp)
    frame->func = func;
    3e87:	48 8b 05 82 fb 21 00 	mov    0x21fb82(%rip),%rax        # 223a10 <_DYNAMIC+0x228>
    3e8e:	48 89 45 88          	mov    %rax,-0x78(%rbp)
    frame->funcname = funcname;
    3e92:	48 8d 05 4a 48 01 00 	lea    0x1484a(%rip),%rax        # 186e3 <write_config+0x133>
    3e99:	48 89 45 90          	mov    %rax,-0x70(%rbp)
    frame->context = NULL;
    frame->retval = NULL;
    arch_store_frame(&frame->arch)
    3e9d:	48 89 e0             	mov    %rsp,%rax
    3ea0:	48 89 45 98          	mov    %rax,-0x68(%rbp)
    3ea4:	48 89 e8             	mov    %rbp,%rax
    3ea7:	48 89 45 a0          	mov    %rax,-0x60(%rbp)
    3eab:	48 89 d8             	mov    %rbx,%rax
    3eae:	48 89 45 a8          	mov    %rax,-0x58(%rbp)
    3eb2:	48 89 f0             	mov    %rsi,%rax
    3eb5:	48 89 45 b0          	mov    %rax,-0x50(%rbp)
    3eb9:	48 89 f8             	mov    %rdi,%rax
    3ebc:	48 89 45 b8          	mov    %rax,-0x48(%rbp)
    3ec0:	4c 89 e0             	mov    %r12,%rax
    3ec3:	48 89 45 c0          	mov    %rax,-0x40(%rbp)
    3ec7:	4c 89 e8             	mov    %r13,%rax
    3eca:	48 89 45 c8          	mov    %rax,-0x38(%rbp)
    3ece:	4c 89 f0             	mov    %r14,%rax
    3ed1:	48 89 45 d0          	mov    %rax,-0x30(%rbp)
    3ed5:	4c 89 f8             	mov    %r15,%rax
    store_frame(StreamWrite);

    if (handle == NULL || buffer == NULL) {
    3ed8:	48 85 ff             	test   %rdi,%rdi
    3edb:	48 89 45 d8          	mov    %rax,-0x28(%rbp)
    3edf:	74 6f                	je     3f50 <DkStreamWrite+0xf0>
    3ee1:	48 85 c9             	test   %rcx,%rcx
    3ee4:	74 6a                	je     3f50 <DkStreamWrite+0xf0>
        notify_failure (PAL_ERROR_INVAL);
        return 0;
    }

    int ret = _DkStreamWrite(handle, offset, count, buffer, dest,
    3ee6:	45 31 c9             	xor    %r9d,%r9d
    3ee9:	4d 85 c0             	test   %r8,%r8
    3eec:	74 43                	je     3f31 <DkStreamWrite+0xd1>
                             dest ? strlen(dest) : 0);
    3eee:	4c 89 c7             	mov    %r8,%rdi
    3ef1:	48 89 8d 60 ff ff ff 	mov    %rcx,-0xa0(%rbp)
    3ef8:	48 89 95 68 ff ff ff 	mov    %rdx,-0x98(%rbp)
    3eff:	48 89 b5 70 ff ff ff 	mov    %rsi,-0x90(%rbp)
    3f06:	4c 89 85 78 ff ff ff 	mov    %r8,-0x88(%rbp)
    3f0d:	e8 8e 28 01 00       	callq  167a0 <strlen>
    if (handle == NULL || buffer == NULL) {
        notify_failure (PAL_ERROR_INVAL);
        return 0;
    }

    int ret = _DkStreamWrite(handle, offset, count, buffer, dest,
    3f12:	48 8b 8d 60 ff ff ff 	mov    -0xa0(%rbp),%rcx
    3f19:	48 8b 95 68 ff ff ff 	mov    -0x98(%rbp),%rdx
    3f20:	41 89 c1             	mov    %eax,%r9d
    3f23:	48 8b b5 70 ff ff ff 	mov    -0x90(%rbp),%rsi
    3f2a:	4c 8b 85 78 ff ff ff 	mov    -0x88(%rbp),%r8
    3f31:	48 89 df             	mov    %rbx,%rdi
    3f34:	e8 a7 fe ff ff       	callq  3de0 <_DkStreamWrite>
                             dest ? strlen(dest) : 0);

    if (ret < 0) {
    3f39:	85 c0                	test   %eax,%eax
    3f3b:	78 33                	js     3f70 <DkStreamWrite+0x110>
        notify_failure(-ret);
        ret = 0;
    }

    return ret;
}
    3f3d:	48 81 c4 98 00 00 00 	add    $0x98,%rsp
    3f44:	48 98                	cltq   
    3f46:	5b                   	pop    %rbx
    3f47:	5d                   	pop    %rbp
    3f48:	c3                   	retq   
    3f49:	0f 1f 80 00 00 00 00 	nopl   0x0(%rax)
               const PAL_PTR buffer, PAL_STR dest)
{
    store_frame(StreamWrite);

    if (handle == NULL || buffer == NULL) {
        notify_failure (PAL_ERROR_INVAL);
    3f50:	bf 04 00 00 00       	mov    $0x4,%edi
    3f55:	e8 f6 0e 01 00       	callq  14e50 <notify_failure>
        notify_failure(-ret);
        ret = 0;
    }

    return ret;
}
    3f5a:	48 81 c4 98 00 00 00 	add    $0x98,%rsp
{
    store_frame(StreamWrite);

    if (handle == NULL || buffer == NULL) {
        notify_failure (PAL_ERROR_INVAL);
        return 0;
    3f61:	31 c0                	xor    %eax,%eax
        notify_failure(-ret);
        ret = 0;
    }

    return ret;
}
    3f63:	5b                   	pop    %rbx
    3f64:	5d                   	pop    %rbp
    3f65:	c3                   	retq   
    3f66:	66 2e 0f 1f 84 00 00 	nopw   %cs:0x0(%rax,%rax,1)
    3f6d:	00 00 00 

    int ret = _DkStreamWrite(handle, offset, count, buffer, dest,
                             dest ? strlen(dest) : 0);

    if (ret < 0) {
        notify_failure(-ret);
    3f70:	f7 d8                	neg    %eax
    3f72:	48 63 f8             	movslq %eax,%rdi
    3f75:	e8 d6 0e 01 00       	callq  14e50 <notify_failure>
        ret = 0;
    }

    return ret;
}
    3f7a:	48 81 c4 98 00 00 00 	add    $0x98,%rsp

    int ret = _DkStreamWrite(handle, offset, count, buffer, dest,
                             dest ? strlen(dest) : 0);

    if (ret < 0) {
        notify_failure(-ret);
    3f81:	31 c0                	xor    %eax,%eax
        ret = 0;
    }

    return ret;
}
    3f83:	5b                   	pop    %rbx
    3f84:	5d                   	pop    %rbp
    3f85:	c3                   	retq   
    3f86:	66 2e 0f 1f 84 00 00 	nopw   %cs:0x0(%rax,%rax,1)
    3f8d:	00 00 00 

0000000000003f90 <_DkStreamAttributesQuery>:

/* _DkStreamAttributesQuery of internal use. The function query attribute
   of streams by their URI */
int _DkStreamAttributesQuery (PAL_STR uri, PAL_STREAM_ATTR * attr)
{
    3f90:	55                   	push   %rbp
    3f91:	48 89 e5             	mov    %rsp,%rbp
    3f94:	53                   	push   %rbx
    3f95:	48 89 f3             	mov    %rsi,%rbx
    struct handle_ops * ops = NULL;
    const char * type = NULL;

    int ret = parse_stream_uri (&uri, &type, &ops);
    3f98:	48 8d 55 e0          	lea    -0x20(%rbp),%rdx
    3f9c:	48 8d 75 e8          	lea    -0x18(%rbp),%rsi
}

/* _DkStreamAttributesQuery of internal use. The function query attribute
   of streams by their URI */
int _DkStreamAttributesQuery (PAL_STR uri, PAL_STREAM_ATTR * attr)
{
    3fa0:	48 83 ec 28          	sub    $0x28,%rsp
    3fa4:	48 89 7d d8          	mov    %rdi,-0x28(%rbp)
    struct handle_ops * ops = NULL;
    const char * type = NULL;

    int ret = parse_stream_uri (&uri, &type, &ops);
    3fa8:	48 8d 7d d8          	lea    -0x28(%rbp),%rdi

/* _DkStreamAttributesQuery of internal use. The function query attribute
   of streams by their URI */
int _DkStreamAttributesQuery (PAL_STR uri, PAL_STREAM_ATTR * attr)
{
    struct handle_ops * ops = NULL;
    3fac:	48 c7 45 e0 00 00 00 	movq   $0x0,-0x20(%rbp)
    3fb3:	00 
    const char * type = NULL;
    3fb4:	48 c7 45 e8 00 00 00 	movq   $0x0,-0x18(%rbp)
    3fbb:	00 

    int ret = parse_stream_uri (&uri, &type, &ops);
    3fbc:	e8 4f f7 ff ff       	callq  3710 <parse_stream_uri>

    if (ret < 0)
    3fc1:	85 c0                	test   %eax,%eax
    3fc3:	78 1a                	js     3fdf <_DkStreamAttributesQuery+0x4f>
        return ret;

    if (!ops->attrquery)
    3fc5:	48 8b 45 e0          	mov    -0x20(%rbp),%rax
    3fc9:	48 8b 40 68          	mov    0x68(%rax),%rax
    3fcd:	48 85 c0             	test   %rax,%rax
    3fd0:	74 1e                	je     3ff0 <_DkStreamAttributesQuery+0x60>
        return -PAL_ERROR_NOTSUPPORT;

    return ops->attrquery(type, uri, attr);
    3fd2:	48 89 da             	mov    %rbx,%rdx
    3fd5:	48 8b 75 d8          	mov    -0x28(%rbp),%rsi
    3fd9:	48 8b 7d e8          	mov    -0x18(%rbp),%rdi
    3fdd:	ff d0                	callq  *%rax
}
    3fdf:	48 83 c4 28          	add    $0x28,%rsp
    3fe3:	5b                   	pop    %rbx
    3fe4:	5d                   	pop    %rbp
    3fe5:	c3                   	retq   
    3fe6:	66 2e 0f 1f 84 00 00 	nopw   %cs:0x0(%rax,%rax,1)
    3fed:	00 00 00 

    if (ret < 0)
        return ret;

    if (!ops->attrquery)
        return -PAL_ERROR_NOTSUPPORT;
    3ff0:	b8 fd ff ff ff       	mov    $0xfffffffd,%eax
    3ff5:	eb e8                	jmp    3fdf <_DkStreamAttributesQuery+0x4f>
    3ff7:	66 0f 1f 84 00 00 00 	nopw   0x0(%rax,%rax,1)
    3ffe:	00 00 

0000000000004000 <DkStreamAttributesQuery>:
/* PAL call DkStreamAttributeQuery: query attribute of a stream by its
   URI, attr is memory given by user space. Return the pointer of attr
   if succeeded, or NULL if failed. Error code is notified */
PAL_BOL
DkStreamAttributesQuery (PAL_STR uri, PAL_STREAM_ATTR * attr)
{
    4000:	55                   	push   %rbp
    4001:	48 89 e5             	mov    %rsp,%rbp
    4004:	41 55                	push   %r13
    4006:	41 54                	push   %r12

static inline
void __store_frame (struct pal_frame * frame,
                    void * func, const char * funcname)
{
    frame->self = frame;
    4008:	48 8d 85 00 ff ff ff 	lea    -0x100(%rbp),%rax
    400f:	53                   	push   %rbx
    4010:	49 89 f4             	mov    %rsi,%r12
    4013:	48 81 ec e8 00 00 00 	sub    $0xe8,%rsp
    401a:	48 89 85 00 ff ff ff 	mov    %rax,-0x100(%rbp)
    frame->func = func;
    4021:	48 8b 05 70 fa 21 00 	mov    0x21fa70(%rip),%rax        # 223a98 <_DYNAMIC+0x2b0>
    frame->funcname = funcname;
    frame->context = NULL;
    4028:	48 c7 85 60 ff ff ff 	movq   $0x0,-0xa0(%rbp)
    402f:	00 00 00 00 
    frame->retval = NULL;
    4033:	48 c7 85 68 ff ff ff 	movq   $0x0,-0x98(%rbp)
    403a:	00 00 00 00 
static inline
void __store_frame (struct pal_frame * frame,
                    void * func, const char * funcname)
{
    frame->self = frame;
    frame->func = func;
    403e:	48 89 85 08 ff ff ff 	mov    %rax,-0xf8(%rbp)
    frame->funcname = funcname;
    4045:	48 8d 05 a5 46 01 00 	lea    0x146a5(%rip),%rax        # 186f1 <write_config+0x141>
    404c:	48 89 85 10 ff ff ff 	mov    %rax,-0xf0(%rbp)
    frame->context = NULL;
    frame->retval = NULL;
    arch_store_frame(&frame->arch)
    4053:	48 89 e0             	mov    %rsp,%rax
    4056:	48 89 85 18 ff ff ff 	mov    %rax,-0xe8(%rbp)
    405d:	48 89 e8             	mov    %rbp,%rax
    4060:	48 89 85 20 ff ff ff 	mov    %rax,-0xe0(%rbp)
    4067:	48 89 d8             	mov    %rbx,%rax
    406a:	48 89 85 28 ff ff ff 	mov    %rax,-0xd8(%rbp)
    4071:	48 89 f0             	mov    %rsi,%rax
    4074:	48 89 85 30 ff ff ff 	mov    %rax,-0xd0(%rbp)
    407b:	48 89 f8             	mov    %rdi,%rax
    407e:	48 89 85 38 ff ff ff 	mov    %rax,-0xc8(%rbp)
    4085:	4c 89 e0             	mov    %r12,%rax
    4088:	48 89 85 40 ff ff ff 	mov    %rax,-0xc0(%rbp)
    408f:	4c 89 e8             	mov    %r13,%rax
    4092:	48 89 85 48 ff ff ff 	mov    %rax,-0xb8(%rbp)
    4099:	4c 89 f0             	mov    %r14,%rax
    409c:	48 89 85 50 ff ff ff 	mov    %rax,-0xb0(%rbp)
    40a3:	4c 89 f8             	mov    %r15,%rax
    store_frame(StreamAttributesQuery);

    if (!uri || !attr) {
    40a6:	48 85 ff             	test   %rdi,%rdi
    40a9:	48 89 85 58 ff ff ff 	mov    %rax,-0xa8(%rbp)
    40b0:	0f 94 c3             	sete   %bl
    40b3:	48 85 f6             	test   %rsi,%rsi
    40b6:	0f 94 c0             	sete   %al
    40b9:	08 c3                	or     %al,%bl
    40bb:	75 38                	jne    40f5 <DkStreamAttributesQuery+0xf5>
        return PAL_FALSE;
    }

    PAL_STREAM_ATTR attr_buf;

    int ret = _DkStreamAttributesQuery(uri, &attr_buf);
    40bd:	4c 8d ad 70 ff ff ff 	lea    -0x90(%rbp),%r13
    40c4:	4c 89 ee             	mov    %r13,%rsi
    40c7:	e8 c4 fe ff ff       	callq  3f90 <_DkStreamAttributesQuery>

    if (ret < 0) {
    40cc:	85 c0                	test   %eax,%eax
    40ce:	78 41                	js     4111 <DkStreamAttributesQuery+0x111>
        notify_failure(-ret);
        return PAL_FALSE;
    }

    memcpy(attr, &attr_buf, sizeof(PAL_STREAM_ATTR));
    40d0:	4c 89 ee             	mov    %r13,%rsi
    40d3:	4c 89 e7             	mov    %r12,%rdi
    40d6:	ba 70 00 00 00       	mov    $0x70,%edx
    40db:	e8 a0 21 01 00       	callq  16280 <memcpy>
    return PAL_TRUE;
    40e0:	bb 01 00 00 00       	mov    $0x1,%ebx
}
    40e5:	48 81 c4 e8 00 00 00 	add    $0xe8,%rsp
    40ec:	89 d8                	mov    %ebx,%eax
    40ee:	5b                   	pop    %rbx
    40ef:	41 5c                	pop    %r12
    40f1:	41 5d                	pop    %r13
    40f3:	5d                   	pop    %rbp
    40f4:	c3                   	retq   
DkStreamAttributesQuery (PAL_STR uri, PAL_STREAM_ATTR * attr)
{
    store_frame(StreamAttributesQuery);

    if (!uri || !attr) {
        notify_failure(PAL_ERROR_INVAL);
    40f5:	bf 04 00 00 00       	mov    $0x4,%edi
        return PAL_FALSE;
    40fa:	31 db                	xor    %ebx,%ebx
DkStreamAttributesQuery (PAL_STR uri, PAL_STREAM_ATTR * attr)
{
    store_frame(StreamAttributesQuery);

    if (!uri || !attr) {
        notify_failure(PAL_ERROR_INVAL);
    40fc:	e8 4f 0d 01 00       	callq  14e50 <notify_failure>
        return PAL_FALSE;
    }

    memcpy(attr, &attr_buf, sizeof(PAL_STREAM_ATTR));
    return PAL_TRUE;
}
    4101:	48 81 c4 e8 00 00 00 	add    $0xe8,%rsp
    4108:	89 d8                	mov    %ebx,%eax
    410a:	5b                   	pop    %rbx
    410b:	41 5c                	pop    %r12
    410d:	41 5d                	pop    %r13
    410f:	5d                   	pop    %rbp
    4110:	c3                   	retq   
    PAL_STREAM_ATTR attr_buf;

    int ret = _DkStreamAttributesQuery(uri, &attr_buf);

    if (ret < 0) {
        notify_failure(-ret);
    4111:	f7 d8                	neg    %eax
    4113:	48 63 f8             	movslq %eax,%rdi
    4116:	e8 35 0d 01 00       	callq  14e50 <notify_failure>
        return PAL_FALSE;
    }

    memcpy(attr, &attr_buf, sizeof(PAL_STREAM_ATTR));
    return PAL_TRUE;
}
    411b:	48 81 c4 e8 00 00 00 	add    $0xe8,%rsp
    4122:	89 d8                	mov    %ebx,%eax
    4124:	5b                   	pop    %rbx
    4125:	41 5c                	pop    %r12
    4127:	41 5d                	pop    %r13
    4129:	5d                   	pop    %rbp
    412a:	c3                   	retq   
    412b:	0f 1f 44 00 00       	nopl   0x0(%rax,%rax,1)

0000000000004130 <_DkStreamAttributesQuerybyHandle>:

/* _DkStreamAttributesQuerybyHandle for internal use. Query attribute
   of streams by their handle */
int _DkStreamAttributesQuerybyHandle (PAL_HANDLE hdl, PAL_STREAM_ATTR * attr)
{
    4130:	48 63 07             	movslq (%rdi),%rax
    4133:	8d 50 ff             	lea    -0x1(%rax),%edx
    4136:	83 fa 10             	cmp    $0x10,%edx
    4139:	77 75                	ja     41b0 <_DkStreamAttributesQuerybyHandle+0x80>
    413b:	55                   	push   %rbp
    413c:	48 89 e5             	mov    %rsp,%rbp
    413f:	41 55                	push   %r13
    4141:	41 54                	push   %r12
    4143:	53                   	push   %rbx
    4144:	49 89 f4             	mov    %rsi,%r12
    4147:	48 89 fb             	mov    %rdi,%rbx
    414a:	48 83 ec 08          	sub    $0x8,%rsp
    if (UNKNOWN_HANDLE(hdl))
        return -PAL_ERROR_BADHANDLE;

    const struct handle_ops * ops = HANDLE_OPS(hdl);
    414e:	48 8b 15 ab f8 21 00 	mov    0x21f8ab(%rip),%rdx        # 223a00 <_DYNAMIC+0x218>
    4155:	4c 8b 2c c2          	mov    (%rdx,%rax,8),%r13

    assert(ops);
    4159:	4d 85 ed             	test   %r13,%r13
    415c:	74 1b                	je     4179 <_DkStreamAttributesQuerybyHandle+0x49>

    /* if ops->attrquerybyhdl is not defined, the stream cannot be queried */
    if (!ops->attrquerybyhdl)
    415e:	49 8b 45 70          	mov    0x70(%r13),%rax
    4162:	48 85 c0             	test   %rax,%rax
    4165:	74 59                	je     41c0 <_DkStreamAttributesQuerybyHandle+0x90>
        return -PAL_ERROR_NOTSUPPORT;

    return ops->attrquerybyhdl(hdl, attr);
}
    4167:	48 83 c4 08          	add    $0x8,%rsp

    /* if ops->attrquerybyhdl is not defined, the stream cannot be queried */
    if (!ops->attrquerybyhdl)
        return -PAL_ERROR_NOTSUPPORT;

    return ops->attrquerybyhdl(hdl, attr);
    416b:	4c 89 e6             	mov    %r12,%rsi
    416e:	48 89 df             	mov    %rbx,%rdi
}
    4171:	5b                   	pop    %rbx
    4172:	41 5c                	pop    %r12
    4174:	41 5d                	pop    %r13
    4176:	5d                   	pop    %rbp

    /* if ops->attrquerybyhdl is not defined, the stream cannot be queried */
    if (!ops->attrquerybyhdl)
        return -PAL_ERROR_NOTSUPPORT;

    return ops->attrquerybyhdl(hdl, attr);
    4177:	ff e0                	jmpq   *%rax
    if (UNKNOWN_HANDLE(hdl))
        return -PAL_ERROR_BADHANDLE;

    const struct handle_ops * ops = HANDLE_OPS(hdl);

    assert(ops);
    4179:	48 8d 15 9e 44 01 00 	lea    0x1449e(%rip),%rdx        # 1861e <write_config+0x6e>
    4180:	48 8d 35 a4 44 01 00 	lea    0x144a4(%rip),%rsi        # 1862b <write_config+0x7b>
    4187:	48 8d 3d aa 45 01 00 	lea    0x145aa(%rip),%rdi        # 18738 <write_config+0x188>
    418e:	b9 a2 01 00 00       	mov    $0x1a2,%ecx
    4193:	31 c0                	xor    %eax,%eax
    4195:	e8 86 4c 00 00       	callq  8e20 <pal_printf>
    419a:	e8 d1 28 00 00       	callq  6a70 <__assert>
    419f:	bf 01 00 00 00       	mov    $0x1,%edi
    41a4:	e8 d7 e3 00 00       	callq  12580 <_DkProcessExit>
    41a9:	eb b3                	jmp    415e <_DkStreamAttributesQuerybyHandle+0x2e>
    41ab:	0f 1f 44 00 00       	nopl   0x0(%rax,%rax,1)
/* _DkStreamAttributesQuerybyHandle for internal use. Query attribute
   of streams by their handle */
int _DkStreamAttributesQuerybyHandle (PAL_HANDLE hdl, PAL_STREAM_ATTR * attr)
{
    if (UNKNOWN_HANDLE(hdl))
        return -PAL_ERROR_BADHANDLE;
    41b0:	b8 f9 ff ff ff       	mov    $0xfffffff9,%eax
    /* if ops->attrquerybyhdl is not defined, the stream cannot be queried */
    if (!ops->attrquerybyhdl)
        return -PAL_ERROR_NOTSUPPORT;

    return ops->attrquerybyhdl(hdl, attr);
}
    41b5:	c3                   	retq   
    41b6:	66 2e 0f 1f 84 00 00 	nopw   %cs:0x0(%rax,%rax,1)
    41bd:	00 00 00 
    41c0:	48 83 c4 08          	add    $0x8,%rsp

    assert(ops);

    /* if ops->attrquerybyhdl is not defined, the stream cannot be queried */
    if (!ops->attrquerybyhdl)
        return -PAL_ERROR_NOTSUPPORT;
    41c4:	b8 fd ff ff ff       	mov    $0xfffffffd,%eax

    return ops->attrquerybyhdl(hdl, attr);
}
    41c9:	5b                   	pop    %rbx
    41ca:	41 5c                	pop    %r12
    41cc:	41 5d                	pop    %r13
    41ce:	5d                   	pop    %rbp
    41cf:	c3                   	retq   

00000000000041d0 <DkStreamAttributesQuerybyHandle>:
/* PAL call DkStreamAttributesQuerybyHandle: Query attribute of a stream by
   its handle, attr is memory given by user space. Return the pointer of attr
   if succeeded, or NULL if failed. Error code is notified */
PAL_BOL
DkStreamAttributesQuerybyHandle (PAL_HANDLE handle, PAL_STREAM_ATTR * attr)
{
    41d0:	55                   	push   %rbp
    41d1:	48 89 e5             	mov    %rsp,%rbp
    41d4:	53                   	push   %rbx

static inline
void __store_frame (struct pal_frame * frame,
                    void * func, const char * funcname)
{
    frame->self = frame;
    41d5:	48 8d 45 80          	lea    -0x80(%rbp),%rax
    41d9:	48 83 ec 78          	sub    $0x78,%rsp
    frame->func = func;
    frame->funcname = funcname;
    frame->context = NULL;
    41dd:	48 c7 45 e0 00 00 00 	movq   $0x0,-0x20(%rbp)
    41e4:	00 
    frame->retval = NULL;
    41e5:	48 c7 45 e8 00 00 00 	movq   $0x0,-0x18(%rbp)
    41ec:	00 

static inline
void __store_frame (struct pal_frame * frame,
                    void * func, const char * funcname)
{
    frame->self = frame;
    41ed:	48 89 45 80          	mov    %rax,-0x80(%rbp)
    frame->func = func;
    41f1:	48 8b 05 78 f7 21 00 	mov    0x21f778(%rip),%rax        # 223970 <_DYNAMIC+0x188>
    41f8:	48 89 45 88          	mov    %rax,-0x78(%rbp)
    frame->funcname = funcname;
    41fc:	48 8d 05 55 45 01 00 	lea    0x14555(%rip),%rax        # 18758 <write_config+0x1a8>
    4203:	48 89 45 90          	mov    %rax,-0x70(%rbp)
    frame->context = NULL;
    frame->retval = NULL;
    arch_store_frame(&frame->arch)
    4207:	48 89 e0             	mov    %rsp,%rax
    420a:	48 89 45 98          	mov    %rax,-0x68(%rbp)
    420e:	48 89 e8             	mov    %rbp,%rax
    4211:	48 89 45 a0          	mov    %rax,-0x60(%rbp)
    4215:	48 89 d8             	mov    %rbx,%rax
    4218:	48 89 45 a8          	mov    %rax,-0x58(%rbp)
    421c:	48 89 f0             	mov    %rsi,%rax
    421f:	48 89 45 b0          	mov    %rax,-0x50(%rbp)
    4223:	48 89 f8             	mov    %rdi,%rax
    4226:	48 89 45 b8          	mov    %rax,-0x48(%rbp)
    422a:	4c 89 e0             	mov    %r12,%rax
    422d:	48 89 45 c0          	mov    %rax,-0x40(%rbp)
    4231:	4c 89 e8             	mov    %r13,%rax
    4234:	48 89 45 c8          	mov    %rax,-0x38(%rbp)
    4238:	4c 89 f0             	mov    %r14,%rax
    423b:	48 89 45 d0          	mov    %rax,-0x30(%rbp)
    423f:	4c 89 f8             	mov    %r15,%rax
    store_frame(StreamAttributesQuerybyHandle);

    if (!handle || !attr) {
    4242:	48 85 ff             	test   %rdi,%rdi
    4245:	48 89 45 d8          	mov    %rax,-0x28(%rbp)
    4249:	0f 94 c3             	sete   %bl
    424c:	48 85 f6             	test   %rsi,%rsi
    424f:	0f 94 c0             	sete   %al
    4252:	08 c3                	or     %al,%bl
    4254:	75 1a                	jne    4270 <DkStreamAttributesQuerybyHandle+0xa0>
        notify_failure(PAL_ERROR_INVAL);
        return PAL_FALSE;
    }

    int ret = _DkStreamAttributesQuerybyHandle(handle, attr);
    4256:	e8 d5 fe ff ff       	callq  4130 <_DkStreamAttributesQuerybyHandle>

    if (ret < 0) {
    425b:	85 c0                	test   %eax,%eax
    425d:	78 26                	js     4285 <DkStreamAttributesQuerybyHandle+0xb5>
        notify_failure (-ret);
        return PAL_FALSE;
    }

    return PAL_TRUE;
    425f:	bb 01 00 00 00       	mov    $0x1,%ebx
}
    4264:	48 83 c4 78          	add    $0x78,%rsp
    4268:	89 d8                	mov    %ebx,%eax
    426a:	5b                   	pop    %rbx
    426b:	5d                   	pop    %rbp
    426c:	c3                   	retq   
    426d:	0f 1f 00             	nopl   (%rax)
DkStreamAttributesQuerybyHandle (PAL_HANDLE handle, PAL_STREAM_ATTR * attr)
{
    store_frame(StreamAttributesQuerybyHandle);

    if (!handle || !attr) {
        notify_failure(PAL_ERROR_INVAL);
    4270:	bf 04 00 00 00       	mov    $0x4,%edi
        return PAL_FALSE;
    4275:	31 db                	xor    %ebx,%ebx
DkStreamAttributesQuerybyHandle (PAL_HANDLE handle, PAL_STREAM_ATTR * attr)
{
    store_frame(StreamAttributesQuerybyHandle);

    if (!handle || !attr) {
        notify_failure(PAL_ERROR_INVAL);
    4277:	e8 d4 0b 01 00       	callq  14e50 <notify_failure>
        notify_failure (-ret);
        return PAL_FALSE;
    }

    return PAL_TRUE;
}
    427c:	48 83 c4 78          	add    $0x78,%rsp
    4280:	89 d8                	mov    %ebx,%eax
    4282:	5b                   	pop    %rbx
    4283:	5d                   	pop    %rbp
    4284:	c3                   	retq   
    }

    int ret = _DkStreamAttributesQuerybyHandle(handle, attr);

    if (ret < 0) {
        notify_failure (-ret);
    4285:	f7 d8                	neg    %eax
    4287:	48 63 f8             	movslq %eax,%rdi
    428a:	e8 c1 0b 01 00       	callq  14e50 <notify_failure>
        return PAL_FALSE;
    }

    return PAL_TRUE;
}
    428f:	48 83 c4 78          	add    $0x78,%rsp
    4293:	89 d8                	mov    %ebx,%eax
    4295:	5b                   	pop    %rbx
    4296:	5d                   	pop    %rbp
    4297:	c3                   	retq   
    4298:	0f 1f 84 00 00 00 00 	nopl   0x0(%rax,%rax,1)
    429f:	00 

00000000000042a0 <_DkStreamMap>:

/* _DkStreamMap for internal use. Map specific handle to certain memory,
   with given protection, offset and size */
int _DkStreamMap (PAL_HANDLE handle, void ** paddr, int prot, int offset,
                  size_t size)
{
    42a0:	55                   	push   %rbp
    42a1:	48 89 e5             	mov    %rsp,%rbp
    42a4:	53                   	push   %rbx
    42a5:	48 89 f3             	mov    %rsi,%rbx
    42a8:	48 83 ec 18          	sub    $0x18,%rsp
    void * addr = *paddr;
    int ret;

    const struct handle_ops * ops = HANDLE_OPS(handle);
    42ac:	4c 63 0f             	movslq (%rdi),%r9
/* _DkStreamMap for internal use. Map specific handle to certain memory,
   with given protection, offset and size */
int _DkStreamMap (PAL_HANDLE handle, void ** paddr, int prot, int offset,
                  size_t size)
{
    void * addr = *paddr;
    42af:	48 8b 06             	mov    (%rsi),%rax
    42b2:	48 89 45 e8          	mov    %rax,-0x18(%rbp)

    const struct handle_ops * ops = HANDLE_OPS(handle);

    /* if ops or ops->map is not defined, the stream cannot be mapped */
    if (!ops || !ops->map)
        return -PAL_ERROR_NOTSUPPORT;
    42b6:	b8 fd ff ff ff       	mov    $0xfffffffd,%eax
                  size_t size)
{
    void * addr = *paddr;
    int ret;

    const struct handle_ops * ops = HANDLE_OPS(handle);
    42bb:	41 8d 71 ff          	lea    -0x1(%r9),%esi
    42bf:	83 fe 10             	cmp    $0x10,%esi
    42c2:	77 2d                	ja     42f1 <_DkStreamMap+0x51>
    42c4:	48 8b 35 35 f7 21 00 	mov    0x21f735(%rip),%rsi        # 223a00 <_DYNAMIC+0x218>
    42cb:	4a 8b 34 ce          	mov    (%rsi,%r9,8),%rsi

    /* if ops or ops->map is not defined, the stream cannot be mapped */
    if (!ops || !ops->map)
    42cf:	48 85 f6             	test   %rsi,%rsi
    42d2:	74 1d                	je     42f1 <_DkStreamMap+0x51>
    42d4:	4c 8b 4e 48          	mov    0x48(%rsi),%r9
    42d8:	4d 85 c9             	test   %r9,%r9
    42db:	74 14                	je     42f1 <_DkStreamMap+0x51>
        return -PAL_ERROR_NOTSUPPORT;

    if ((ret = ops->map(handle, &addr, prot, offset, size)) < 0)
    42dd:	48 8d 75 e8          	lea    -0x18(%rbp),%rsi
    42e1:	41 ff d1             	callq  *%r9
    42e4:	85 c0                	test   %eax,%eax
    42e6:	78 09                	js     42f1 <_DkStreamMap+0x51>
        return ret;

    *paddr = addr;
    42e8:	48 8b 45 e8          	mov    -0x18(%rbp),%rax
    42ec:	48 89 03             	mov    %rax,(%rbx)
    return 0;
    42ef:	31 c0                	xor    %eax,%eax
}
    42f1:	48 83 c4 18          	add    $0x18,%rsp
    42f5:	5b                   	pop    %rbx
    42f6:	5d                   	pop    %rbp
    42f7:	c3                   	retq   
    42f8:	0f 1f 84 00 00 00 00 	nopl   0x0(%rax,%rax,1)
    42ff:	00 

0000000000004300 <DkStreamMap>:
   mapping. Return the address if succeeded or NULL if failed. Error code
   is notified. */
PAL_BUF
DkStreamMap (PAL_HANDLE handle, PAL_BUF addr, PAL_FLG prot, PAL_NUM offset,
             PAL_NUM size)
{
    4300:	55                   	push   %rbp
    4301:	48 89 e5             	mov    %rsp,%rbp
    4304:	53                   	push   %rbx
    4305:	48 89 fb             	mov    %rdi,%rbx

static inline
void __store_frame (struct pal_frame * frame,
                    void * func, const char * funcname)
{
    frame->self = frame;
    4308:	48 8d 45 80          	lea    -0x80(%rbp),%rax
    430c:	48 81 ec 98 00 00 00 	sub    $0x98,%rsp
    4313:	48 89 b5 78 ff ff ff 	mov    %rsi,-0x88(%rbp)
    frame->func = func;
    frame->funcname = funcname;
    frame->context = NULL;
    431a:	48 c7 45 e0 00 00 00 	movq   $0x0,-0x20(%rbp)
    4321:	00 

static inline
void __store_frame (struct pal_frame * frame,
                    void * func, const char * funcname)
{
    frame->self = frame;
    4322:	48 89 45 80          	mov    %rax,-0x80(%rbp)
    frame->func = func;
    4326:	48 8b 05 0b f8 21 00 	mov    0x21f80b(%rip),%rax        # 223b38 <_DYNAMIC+0x350>
    frame->funcname = funcname;
    frame->context = NULL;
    frame->retval = NULL;
    432d:	48 c7 45 e8 00 00 00 	movq   $0x0,-0x18(%rbp)
    4334:	00 
static inline
void __store_frame (struct pal_frame * frame,
                    void * func, const char * funcname)
{
    frame->self = frame;
    frame->func = func;
    4335:	48 89 45 88          	mov    %rax,-0x78(%rbp)
    frame->funcname = funcname;
    4339:	48 8d 05 c9 43 01 00 	lea    0x143c9(%rip),%rax        # 18709 <write_config+0x159>
    4340:	48 89 45 90          	mov    %rax,-0x70(%rbp)
    frame->context = NULL;
    frame->retval = NULL;
    arch_store_frame(&frame->arch)
    4344:	48 89 e0             	mov    %rsp,%rax
    4347:	48 89 45 98          	mov    %rax,-0x68(%rbp)
    434b:	48 89 e8             	mov    %rbp,%rax
    434e:	48 89 45 a0          	mov    %rax,-0x60(%rbp)
    4352:	48 89 d8             	mov    %rbx,%rax
    4355:	48 89 45 a8          	mov    %rax,-0x58(%rbp)
    4359:	48 89 f0             	mov    %rsi,%rax
    435c:	48 89 45 b0          	mov    %rax,-0x50(%rbp)
    4360:	48 89 f8             	mov    %rdi,%rax
    4363:	48 89 45 b8          	mov    %rax,-0x48(%rbp)
    4367:	4c 89 e0             	mov    %r12,%rax
    436a:	48 89 45 c0          	mov    %rax,-0x40(%rbp)
    436e:	4c 89 e8             	mov    %r13,%rax
    4371:	48 89 45 c8          	mov    %rax,-0x38(%rbp)
    4375:	4c 89 f0             	mov    %r14,%rax
    4378:	48 89 45 d0          	mov    %rax,-0x30(%rbp)
    437c:	4c 89 f8             	mov    %r15,%rax
    store_frame(StreamMap);

    if (!handle) {
    437f:	48 85 ff             	test   %rdi,%rdi
    4382:	48 89 45 d8          	mov    %rax,-0x28(%rbp)
    4386:	0f 84 a6 00 00 00    	je     4432 <DkStreamMap+0x132>
        notify_failure(PAL_ERROR_INVAL);
        return NULL;
    }

    if ((addr && !ALLOC_ALIGNED(addr)) || !size || !ALLOC_ALIGNED(size) ||
    438c:	48 8b bd 78 ff ff ff 	mov    -0x88(%rbp),%rdi
    4393:	48 85 ff             	test   %rdi,%rdi
    4396:	0f 84 b4 00 00 00    	je     4450 <DkStreamMap+0x150>
    439c:	48 8b 05 ed f5 21 00 	mov    0x21f5ed(%rip),%rax        # 223990 <_DYNAMIC+0x1a8>
    43a3:	48 83 38 00          	cmpq   $0x0,(%rax)
    43a7:	0f 84 85 00 00 00    	je     4432 <DkStreamMap+0x132>
    43ad:	48 8b 05 44 f7 21 00 	mov    0x21f744(%rip),%rax        # 223af8 <_DYNAMIC+0x310>
    43b4:	48 89 fe             	mov    %rdi,%rsi
    43b7:	48 8b 00             	mov    (%rax),%rax
    43ba:	48 21 c6             	and    %rax,%rsi
    43bd:	48 39 f7             	cmp    %rsi,%rdi
    43c0:	75 70                	jne    4432 <DkStreamMap+0x132>
    43c2:	4d 85 c0             	test   %r8,%r8
    43c5:	74 6b                	je     4432 <DkStreamMap+0x132>
    43c7:	48 89 c6             	mov    %rax,%rsi
    43ca:	89 95 74 ff ff ff    	mov    %edx,-0x8c(%rbp)
    43d0:	4c 21 c6             	and    %r8,%rsi
    43d3:	4c 39 c6             	cmp    %r8,%rsi
    43d6:	75 5a                	jne    4432 <DkStreamMap+0x132>
        !ALLOC_ALIGNED(offset)) {
    43d8:	48 21 c8             	and    %rcx,%rax
    43db:	48 89 8d 68 ff ff ff 	mov    %rcx,-0x98(%rbp)
    43e2:	48 39 c8             	cmp    %rcx,%rax
    43e5:	75 4b                	jne    4432 <DkStreamMap+0x132>
        notify_failure(PAL_ERROR_INVAL);
        return NULL;
    }

    if (check_memory_overlap(addr, size)) {
    43e7:	4c 89 c6             	mov    %r8,%rsi
    43ea:	4c 89 85 60 ff ff ff 	mov    %r8,-0xa0(%rbp)
    43f1:	e8 9a 03 00 00       	callq  4790 <check_memory_overlap>
    43f6:	84 c0                	test   %al,%al
    43f8:	4c 8b 85 60 ff ff ff 	mov    -0xa0(%rbp),%r8
    43ff:	48 8b 8d 68 ff ff ff 	mov    -0x98(%rbp),%rcx
    4406:	8b 95 74 ff ff ff    	mov    -0x8c(%rbp),%edx
    440c:	75 63                	jne    4471 <DkStreamMap+0x171>
        notify_failure(PAL_ERROR_DENIED);
        return NULL;
    }

    int ret = _DkStreamMap(handle, &addr, prot, offset, size);
    440e:	48 8d b5 78 ff ff ff 	lea    -0x88(%rbp),%rsi
    4415:	48 89 df             	mov    %rbx,%rdi
    4418:	e8 83 fe ff ff       	callq  42a0 <_DkStreamMap>

    if (ret < 0) {
    441d:	85 c0                	test   %eax,%eax
    441f:	78 5e                	js     447f <DkStreamMap+0x17f>
        notify_failure(-ret);
        return NULL;
    }

    return addr;
    4421:	48 8b 85 78 ff ff ff 	mov    -0x88(%rbp),%rax
}
    4428:	48 81 c4 98 00 00 00 	add    $0x98,%rsp
    442f:	5b                   	pop    %rbx
    4430:	5d                   	pop    %rbp
    4431:	c3                   	retq   
             PAL_NUM size)
{
    store_frame(StreamMap);

    if (!handle) {
        notify_failure(PAL_ERROR_INVAL);
    4432:	bf 04 00 00 00       	mov    $0x4,%edi
    4437:	e8 14 0a 01 00       	callq  14e50 <notify_failure>
        return NULL;
    443c:	31 c0                	xor    %eax,%eax
        notify_failure(-ret);
        return NULL;
    }

    return addr;
}
    443e:	48 81 c4 98 00 00 00 	add    $0x98,%rsp
    4445:	5b                   	pop    %rbx
    4446:	5d                   	pop    %rbp
    4447:	c3                   	retq   
    4448:	0f 1f 84 00 00 00 00 	nopl   0x0(%rax,%rax,1)
    444f:	00 
    if (!handle) {
        notify_failure(PAL_ERROR_INVAL);
        return NULL;
    }

    if ((addr && !ALLOC_ALIGNED(addr)) || !size || !ALLOC_ALIGNED(size) ||
    4450:	4d 85 c0             	test   %r8,%r8
    4453:	74 dd                	je     4432 <DkStreamMap+0x132>
    4455:	48 8b 05 34 f5 21 00 	mov    0x21f534(%rip),%rax        # 223990 <_DYNAMIC+0x1a8>
    445c:	48 83 38 00          	cmpq   $0x0,(%rax)
    4460:	74 d0                	je     4432 <DkStreamMap+0x132>
    4462:	48 8b 05 8f f6 21 00 	mov    0x21f68f(%rip),%rax        # 223af8 <_DYNAMIC+0x310>
    4469:	48 8b 00             	mov    (%rax),%rax
    446c:	e9 56 ff ff ff       	jmpq   43c7 <DkStreamMap+0xc7>
        notify_failure(PAL_ERROR_INVAL);
        return NULL;
    }

    if (check_memory_overlap(addr, size)) {
        notify_failure(PAL_ERROR_DENIED);
    4471:	bf 06 00 00 00       	mov    $0x6,%edi
    4476:	e8 d5 09 01 00       	callq  14e50 <notify_failure>
        return NULL;
    447b:	31 c0                	xor    %eax,%eax
    447d:	eb bf                	jmp    443e <DkStreamMap+0x13e>
    }

    int ret = _DkStreamMap(handle, &addr, prot, offset, size);

    if (ret < 0) {
        notify_failure(-ret);
    447f:	f7 d8                	neg    %eax
    4481:	48 63 f8             	movslq %eax,%rdi
    4484:	e8 c7 09 01 00       	callq  14e50 <notify_failure>
        return NULL;
    4489:	31 c0                	xor    %eax,%eax
    448b:	eb b1                	jmp    443e <DkStreamMap+0x13e>
    448d:	0f 1f 00             	nopl   (%rax)

0000000000004490 <_DkStreamSetLength>:
}

/* _DkStreamSetLength for internal use. This function truncate the stream
   to certain length. This call might not be support for certain streams */
int _DkStreamSetLength (PAL_HANDLE handle, size_t length)
{
    4490:	48 63 07             	movslq (%rdi),%rax
    4493:	55                   	push   %rbp
    4494:	48 89 e5             	mov    %rsp,%rbp
    if (UNKNOWN_HANDLE(handle))
    4497:	8d 50 ff             	lea    -0x1(%rax),%edx
    449a:	83 fa 10             	cmp    $0x10,%edx
    449d:	77 21                	ja     44c0 <_DkStreamSetLength+0x30>
        return -PAL_ERROR_BADHANDLE;

    const struct handle_ops * ops = HANDLE_OPS(handle);
    449f:	48 8b 15 5a f5 21 00 	mov    0x21f55a(%rip),%rdx        # 223a00 <_DYNAMIC+0x218>
    44a6:	48 8b 04 c2          	mov    (%rdx,%rax,8),%rax

    if (!ops || !ops->setlength)
    44aa:	48 85 c0             	test   %rax,%rax
    44ad:	74 21                	je     44d0 <_DkStreamSetLength+0x40>
    44af:	48 8b 40 50          	mov    0x50(%rax),%rax
    44b3:	48 85 c0             	test   %rax,%rax
    44b6:	74 18                	je     44d0 <_DkStreamSetLength+0x40>
        return -PAL_ERROR_NOTSUPPORT;

    return ops->setlength(handle, length);
}
    44b8:	5d                   	pop    %rbp
    const struct handle_ops * ops = HANDLE_OPS(handle);

    if (!ops || !ops->setlength)
        return -PAL_ERROR_NOTSUPPORT;

    return ops->setlength(handle, length);
    44b9:	ff e0                	jmpq   *%rax
    44bb:	0f 1f 44 00 00       	nopl   0x0(%rax,%rax,1)
/* _DkStreamSetLength for internal use. This function truncate the stream
   to certain length. This call might not be support for certain streams */
int _DkStreamSetLength (PAL_HANDLE handle, size_t length)
{
    if (UNKNOWN_HANDLE(handle))
        return -PAL_ERROR_BADHANDLE;
    44c0:	b8 f9 ff ff ff       	mov    $0xfffffff9,%eax

    if (!ops || !ops->setlength)
        return -PAL_ERROR_NOTSUPPORT;

    return ops->setlength(handle, length);
}
    44c5:	5d                   	pop    %rbp
    44c6:	c3                   	retq   
    44c7:	66 0f 1f 84 00 00 00 	nopw   0x0(%rax,%rax,1)
    44ce:	00 00 
        return -PAL_ERROR_BADHANDLE;

    const struct handle_ops * ops = HANDLE_OPS(handle);

    if (!ops || !ops->setlength)
        return -PAL_ERROR_NOTSUPPORT;
    44d0:	b8 fd ff ff ff       	mov    $0xfffffffd,%eax

    return ops->setlength(handle, length);
}
    44d5:	5d                   	pop    %rbp
    44d6:	c3                   	retq   
    44d7:	66 0f 1f 84 00 00 00 	nopw   0x0(%rax,%rax,1)
    44de:	00 00 

00000000000044e0 <DkStreamSetLength>:

/* PAL call DkStreamSetLength: Truncate the stream at certain length.
   Return the length if succeeded or 0 if failed. Error code is notified. */
PAL_NUM
DkStreamSetLength (PAL_HANDLE handle, PAL_NUM length)
{
    44e0:	55                   	push   %rbp
    44e1:	48 89 e5             	mov    %rsp,%rbp
    44e4:	48 83 ec 70          	sub    $0x70,%rsp

static inline
void __store_frame (struct pal_frame * frame,
                    void * func, const char * funcname)
{
    frame->self = frame;
    44e8:	48 8d 45 90          	lea    -0x70(%rbp),%rax
    frame->func = func;
    frame->funcname = funcname;
    frame->context = NULL;
    44ec:	48 c7 45 f0 00 00 00 	movq   $0x0,-0x10(%rbp)
    44f3:	00 
    frame->retval = NULL;
    44f4:	48 c7 45 f8 00 00 00 	movq   $0x0,-0x8(%rbp)
    44fb:	00 

static inline
void __store_frame (struct pal_frame * frame,
                    void * func, const char * funcname)
{
    frame->self = frame;
    44fc:	48 89 45 90          	mov    %rax,-0x70(%rbp)
    frame->func = func;
    4500:	48 8b 05 e9 f4 21 00 	mov    0x21f4e9(%rip),%rax        # 2239f0 <_DYNAMIC+0x208>
    4507:	48 89 45 98          	mov    %rax,-0x68(%rbp)
    frame->funcname = funcname;
    450b:	48 8d 05 03 42 01 00 	lea    0x14203(%rip),%rax        # 18715 <write_config+0x165>
    4512:	48 89 45 a0          	mov    %rax,-0x60(%rbp)
    frame->context = NULL;
    frame->retval = NULL;
    arch_store_frame(&frame->arch)
    4516:	48 89 e0             	mov    %rsp,%rax
    4519:	48 89 45 a8          	mov    %rax,-0x58(%rbp)
    451d:	48 89 e8             	mov    %rbp,%rax
    4520:	48 89 45 b0          	mov    %rax,-0x50(%rbp)
    4524:	48 89 d8             	mov    %rbx,%rax
    4527:	48 89 45 b8          	mov    %rax,-0x48(%rbp)
    452b:	48 89 f0             	mov    %rsi,%rax
    452e:	48 89 45 c0          	mov    %rax,-0x40(%rbp)
    4532:	48 89 f8             	mov    %rdi,%rax
    4535:	48 89 45 c8          	mov    %rax,-0x38(%rbp)
    4539:	4c 89 e0             	mov    %r12,%rax
    453c:	48 89 45 d0          	mov    %rax,-0x30(%rbp)
    4540:	4c 89 e8             	mov    %r13,%rax
    4543:	48 89 45 d8          	mov    %rax,-0x28(%rbp)
    4547:	4c 89 f0             	mov    %r14,%rax
    454a:	48 89 45 e0          	mov    %rax,-0x20(%rbp)
    454e:	4c 89 f8             	mov    %r15,%rax
    store_frame(StreamSetLength);

    if (!handle) {
    4551:	48 85 ff             	test   %rdi,%rdi
    4554:	48 89 45 e8          	mov    %rax,-0x18(%rbp)
    4558:	74 26                	je     4580 <DkStreamSetLength+0xa0>
        notify_failure(PAL_ERROR_INVAL);
        return 0;
    }

    int ret = _DkStreamSetLength(handle, length);
    455a:	e8 31 ff ff ff       	callq  4490 <_DkStreamSetLength>
    455f:	48 98                	cltq   

    if (ret < 0) {
    4561:	85 c0                	test   %eax,%eax
    if (!handle) {
        notify_failure(PAL_ERROR_INVAL);
        return 0;
    }

    int ret = _DkStreamSetLength(handle, length);
    4563:	48 89 c7             	mov    %rax,%rdi

    if (ret < 0) {
    4566:	78 08                	js     4570 <DkStreamSetLength+0x90>
        notify_failure(-ret);
        return 0;
    }

    return ret;
}
    4568:	c9                   	leaveq 
    4569:	c3                   	retq   
    456a:	66 0f 1f 44 00 00    	nopw   0x0(%rax,%rax,1)
    }

    int ret = _DkStreamSetLength(handle, length);

    if (ret < 0) {
        notify_failure(-ret);
    4570:	f7 df                	neg    %edi
    4572:	48 63 ff             	movslq %edi,%rdi
    4575:	e8 d6 08 01 00       	callq  14e50 <notify_failure>
        return 0;
    457a:	31 c0                	xor    %eax,%eax
    }

    return ret;
}
    457c:	c9                   	leaveq 
    457d:	c3                   	retq   
    457e:	66 90                	xchg   %ax,%ax
DkStreamSetLength (PAL_HANDLE handle, PAL_NUM length)
{
    store_frame(StreamSetLength);

    if (!handle) {
        notify_failure(PAL_ERROR_INVAL);
    4580:	40 b7 04             	mov    $0x4,%dil
    4583:	e8 c8 08 01 00       	callq  14e50 <notify_failure>
        return 0;
    4588:	31 c0                	xor    %eax,%eax
        notify_failure(-ret);
        return 0;
    }

    return ret;
}
    458a:	c9                   	leaveq 
    458b:	c3                   	retq   
    458c:	0f 1f 40 00          	nopl   0x0(%rax)

0000000000004590 <_DkStreamFlush>:

/* _DkStreamFlush for internal use. This function sync up the handle with
   devices. Some streams may not support this operations. */
int _DkStreamFlush (PAL_HANDLE handle)
{
    4590:	48 63 07             	movslq (%rdi),%rax
    4593:	55                   	push   %rbp
    4594:	48 89 e5             	mov    %rsp,%rbp
    if (UNKNOWN_HANDLE(handle))
    4597:	8d 50 ff             	lea    -0x1(%rax),%edx
    459a:	83 fa 10             	cmp    $0x10,%edx
    459d:	77 21                	ja     45c0 <_DkStreamFlush+0x30>
        return -PAL_ERROR_BADHANDLE;

    const struct handle_ops * ops = HANDLE_OPS(handle);
    459f:	48 8b 15 5a f4 21 00 	mov    0x21f45a(%rip),%rdx        # 223a00 <_DYNAMIC+0x218>
    45a6:	48 8b 04 c2          	mov    (%rdx,%rax,8),%rax

    if (!ops || !ops->flush)
    45aa:	48 85 c0             	test   %rax,%rax
    45ad:	74 21                	je     45d0 <_DkStreamFlush+0x40>
    45af:	48 8b 40 58          	mov    0x58(%rax),%rax
    45b3:	48 85 c0             	test   %rax,%rax
    45b6:	74 18                	je     45d0 <_DkStreamFlush+0x40>
        return -PAL_ERROR_NOTSUPPORT;

    return ops->flush(handle);
}
    45b8:	5d                   	pop    %rbp
    const struct handle_ops * ops = HANDLE_OPS(handle);

    if (!ops || !ops->flush)
        return -PAL_ERROR_NOTSUPPORT;

    return ops->flush(handle);
    45b9:	ff e0                	jmpq   *%rax
    45bb:	0f 1f 44 00 00       	nopl   0x0(%rax,%rax,1)
/* _DkStreamFlush for internal use. This function sync up the handle with
   devices. Some streams may not support this operations. */
int _DkStreamFlush (PAL_HANDLE handle)
{
    if (UNKNOWN_HANDLE(handle))
        return -PAL_ERROR_BADHANDLE;
    45c0:	b8 f9 ff ff ff       	mov    $0xfffffff9,%eax

    if (!ops || !ops->flush)
        return -PAL_ERROR_NOTSUPPORT;

    return ops->flush(handle);
}
    45c5:	5d                   	pop    %rbp
    45c6:	c3                   	retq   
    45c7:	66 0f 1f 84 00 00 00 	nopw   0x0(%rax,%rax,1)
    45ce:	00 00 
        return -PAL_ERROR_BADHANDLE;

    const struct handle_ops * ops = HANDLE_OPS(handle);

    if (!ops || !ops->flush)
        return -PAL_ERROR_NOTSUPPORT;
    45d0:	b8 fd ff ff ff       	mov    $0xfffffffd,%eax

    return ops->flush(handle);
}
    45d5:	5d                   	pop    %rbp
    45d6:	c3                   	retq   
    45d7:	66 0f 1f 84 00 00 00 	nopw   0x0(%rax,%rax,1)
    45de:	00 00 

00000000000045e0 <DkStreamFlush>:

/* PAL call DkStreamFlush: Sync up a stream of a given handle. No return
   value. Error code is notified. */
PAL_BOL DkStreamFlush (PAL_HANDLE handle)
{
    45e0:	55                   	push   %rbp
    45e1:	48 89 e5             	mov    %rsp,%rbp
    45e4:	48 83 ec 70          	sub    $0x70,%rsp

static inline
void __store_frame (struct pal_frame * frame,
                    void * func, const char * funcname)
{
    frame->self = frame;
    45e8:	48 8d 45 90          	lea    -0x70(%rbp),%rax
    frame->func = func;
    frame->funcname = funcname;
    frame->context = NULL;
    45ec:	48 c7 45 f0 00 00 00 	movq   $0x0,-0x10(%rbp)
    45f3:	00 
    frame->retval = NULL;
    45f4:	48 c7 45 f8 00 00 00 	movq   $0x0,-0x8(%rbp)
    45fb:	00 

static inline
void __store_frame (struct pal_frame * frame,
                    void * func, const char * funcname)
{
    frame->self = frame;
    45fc:	48 89 45 90          	mov    %rax,-0x70(%rbp)
    frame->func = func;
    4600:	48 8b 05 59 f5 21 00 	mov    0x21f559(%rip),%rax        # 223b60 <_DYNAMIC+0x378>
    4607:	48 89 45 98          	mov    %rax,-0x68(%rbp)
    frame->funcname = funcname;
    460b:	48 8d 05 15 41 01 00 	lea    0x14115(%rip),%rax        # 18727 <write_config+0x177>
    4612:	48 89 45 a0          	mov    %rax,-0x60(%rbp)
    frame->context = NULL;
    frame->retval = NULL;
    arch_store_frame(&frame->arch)
    4616:	48 89 e0             	mov    %rsp,%rax
    4619:	48 89 45 a8          	mov    %rax,-0x58(%rbp)
    461d:	48 89 e8             	mov    %rbp,%rax
    4620:	48 89 45 b0          	mov    %rax,-0x50(%rbp)
    4624:	48 89 d8             	mov    %rbx,%rax
    4627:	48 89 45 b8          	mov    %rax,-0x48(%rbp)
    462b:	48 89 f0             	mov    %rsi,%rax
    462e:	48 89 45 c0          	mov    %rax,-0x40(%rbp)
    4632:	48 89 f8             	mov    %rdi,%rax
    4635:	48 89 45 c8          	mov    %rax,-0x38(%rbp)
    4639:	4c 89 e0             	mov    %r12,%rax
    463c:	48 89 45 d0          	mov    %rax,-0x30(%rbp)
    4640:	4c 89 e8             	mov    %r13,%rax
    4643:	48 89 45 d8          	mov    %rax,-0x28(%rbp)
    4647:	4c 89 f0             	mov    %r14,%rax
    464a:	48 89 45 e0          	mov    %rax,-0x20(%rbp)
    464e:	4c 89 f8             	mov    %r15,%rax
    store_frame(StreamFlush);

    if (!handle) {
    4651:	48 85 ff             	test   %rdi,%rdi
    4654:	48 89 45 e8          	mov    %rax,-0x18(%rbp)
    4658:	74 26                	je     4680 <DkStreamFlush+0xa0>
        notify_failure(PAL_ERROR_INVAL);
        return PAL_FALSE;
    }

    int ret = _DkStreamFlush(handle);
    465a:	e8 31 ff ff ff       	callq  4590 <_DkStreamFlush>
    465f:	89 c7                	mov    %eax,%edi
    if (ret < 0) {
        notify_failure(-ret);
        return PAL_FALSE;
    }

    return PAL_TRUE;
    4661:	b8 01 00 00 00       	mov    $0x1,%eax
        return PAL_FALSE;
    }

    int ret = _DkStreamFlush(handle);

    if (ret < 0) {
    4666:	85 ff                	test   %edi,%edi
    4668:	78 06                	js     4670 <DkStreamFlush+0x90>
        notify_failure(-ret);
        return PAL_FALSE;
    }

    return PAL_TRUE;
}
    466a:	c9                   	leaveq 
    466b:	c3                   	retq   
    466c:	0f 1f 40 00          	nopl   0x0(%rax)
    }

    int ret = _DkStreamFlush(handle);

    if (ret < 0) {
        notify_failure(-ret);
    4670:	f7 df                	neg    %edi
    4672:	48 63 ff             	movslq %edi,%rdi
    4675:	e8 d6 07 01 00       	callq  14e50 <notify_failure>
        return PAL_FALSE;
    467a:	31 c0                	xor    %eax,%eax
    }

    return PAL_TRUE;
}
    467c:	c9                   	leaveq 
    467d:	c3                   	retq   
    467e:	66 90                	xchg   %ax,%ax
PAL_BOL DkStreamFlush (PAL_HANDLE handle)
{
    store_frame(StreamFlush);

    if (!handle) {
        notify_failure(PAL_ERROR_INVAL);
    4680:	40 b7 04             	mov    $0x4,%dil
    4683:	e8 c8 07 01 00       	callq  14e50 <notify_failure>
        return PAL_FALSE;
    4688:	31 c0                	xor    %eax,%eax
        notify_failure(-ret);
        return PAL_FALSE;
    }

    return PAL_TRUE;
}
    468a:	c9                   	leaveq 
    468b:	c3                   	retq   
    468c:	0f 1f 40 00          	nopl   0x0(%rax)

0000000000004690 <DkStreamChangeName>:

    return remalloc(&cargo, handle_size(&cargo));
}

PAL_BOL DkStreamChangeName (PAL_HANDLE hdl, PAL_STR uri)
{
    4690:	55                   	push   %rbp
    4691:	48 89 e5             	mov    %rsp,%rbp
    4694:	41 54                	push   %r12
    4696:	53                   	push   %rbx
    4697:	49 89 fc             	mov    %rdi,%r12
    469a:	48 83 ec 20          	sub    $0x20,%rsp
    struct handle_ops * ops = NULL;
    const char * type = NULL;
    int ret;

    if (uri) {
    469e:	48 85 f6             	test   %rsi,%rsi

    return remalloc(&cargo, handle_size(&cargo));
}

PAL_BOL DkStreamChangeName (PAL_HANDLE hdl, PAL_STR uri)
{
    46a1:	48 89 75 d8          	mov    %rsi,-0x28(%rbp)
    struct handle_ops * ops = NULL;
    46a5:	48 c7 45 e0 00 00 00 	movq   $0x0,-0x20(%rbp)
    46ac:	00 
    const char * type = NULL;
    46ad:	48 c7 45 e8 00 00 00 	movq   $0x0,-0x18(%rbp)
    46b4:	00 
    int ret;

    if (uri) {
    46b5:	74 15                	je     46cc <DkStreamChangeName+0x3c>
        ret = parse_stream_uri(&uri, &type, &ops);
    46b7:	48 8d 55 e0          	lea    -0x20(%rbp),%rdx
    46bb:	48 8d 75 e8          	lea    -0x18(%rbp),%rsi
    46bf:	48 8d 7d d8          	lea    -0x28(%rbp),%rdi
    46c3:	e8 48 f0 ff ff       	callq  3710 <parse_stream_uri>

        if (ret < 0) {
    46c8:	85 c0                	test   %eax,%eax
    46ca:	78 75                	js     4741 <DkStreamChangeName+0xb1>
            notify_failure(-ret);
            return PAL_FALSE;
        }
    }

    const struct handle_ops * hops = HANDLE_OPS(hdl);
    46cc:	49 63 04 24          	movslq (%r12),%rax
    46d0:	8d 50 ff             	lea    -0x1(%rax),%edx
    46d3:	83 fa 10             	cmp    $0x10,%edx
    46d6:	77 30                	ja     4708 <DkStreamChangeName+0x78>
    46d8:	48 8b 15 21 f3 21 00 	mov    0x21f321(%rip),%rdx        # 223a00 <_DYNAMIC+0x218>
    46df:	48 8b 04 c2          	mov    (%rdx,%rax,8),%rax

    if (!hops || !hops->rename || (ops && hops != ops)) {
    46e3:	48 85 c0             	test   %rax,%rax
    46e6:	74 20                	je     4708 <DkStreamChangeName+0x78>
    46e8:	48 8b 88 88 00 00 00 	mov    0x88(%rax),%rcx
    46ef:	48 85 c9             	test   %rcx,%rcx
    46f2:	74 14                	je     4708 <DkStreamChangeName+0x78>
    46f4:	48 8b 55 e0          	mov    -0x20(%rbp),%rdx
    46f8:	48 39 d0             	cmp    %rdx,%rax
    46fb:	0f 95 c3             	setne  %bl
    46fe:	48 85 d2             	test   %rdx,%rdx
    4701:	0f 95 c0             	setne  %al
    4704:	20 c3                	and    %al,%bl
    4706:	74 18                	je     4720 <DkStreamChangeName+0x90>
        notify_failure(PAL_ERROR_NOTSUPPORT);
    4708:	bf 03 00 00 00       	mov    $0x3,%edi
        return PAL_FALSE;
    470d:	31 db                	xor    %ebx,%ebx
    }

    const struct handle_ops * hops = HANDLE_OPS(hdl);

    if (!hops || !hops->rename || (ops && hops != ops)) {
        notify_failure(PAL_ERROR_NOTSUPPORT);
    470f:	e8 3c 07 01 00       	callq  14e50 <notify_failure>
        notify_failure(-ret);
        return PAL_FALSE;
    }

    return PAL_TRUE;
}
    4714:	48 83 c4 20          	add    $0x20,%rsp
    4718:	89 d8                	mov    %ebx,%eax
    471a:	5b                   	pop    %rbx
    471b:	41 5c                	pop    %r12
    471d:	5d                   	pop    %rbp
    471e:	c3                   	retq   
    471f:	90                   	nop    
    if (!hops || !hops->rename || (ops && hops != ops)) {
        notify_failure(PAL_ERROR_NOTSUPPORT);
        return PAL_FALSE;
    }

    ret = hops->rename(hdl, type, uri);
    4720:	48 8b 55 d8          	mov    -0x28(%rbp),%rdx
    4724:	48 8b 75 e8          	mov    -0x18(%rbp),%rsi
    4728:	4c 89 e7             	mov    %r12,%rdi
    472b:	ff d1                	callq  *%rcx

    if (ret < 0) {
    472d:	85 c0                	test   %eax,%eax
    472f:	78 1f                	js     4750 <DkStreamChangeName+0xc0>
        notify_failure(-ret);
        return PAL_FALSE;
    }

    return PAL_TRUE;
}
    4731:	48 83 c4 20          	add    $0x20,%rsp
    if (ret < 0) {
        notify_failure(-ret);
        return PAL_FALSE;
    }

    return PAL_TRUE;
    4735:	bb 01 00 00 00       	mov    $0x1,%ebx
}
    473a:	89 d8                	mov    %ebx,%eax
    473c:	5b                   	pop    %rbx
    473d:	41 5c                	pop    %r12
    473f:	5d                   	pop    %rbp
    4740:	c3                   	retq   

    if (uri) {
        ret = parse_stream_uri(&uri, &type, &ops);

        if (ret < 0) {
            notify_failure(-ret);
    4741:	f7 d8                	neg    %eax
            return PAL_FALSE;
    4743:	31 db                	xor    %ebx,%ebx

    if (uri) {
        ret = parse_stream_uri(&uri, &type, &ops);

        if (ret < 0) {
            notify_failure(-ret);
    4745:	48 63 f8             	movslq %eax,%rdi
    4748:	e8 03 07 01 00       	callq  14e50 <notify_failure>
            return PAL_FALSE;
    474d:	eb c5                	jmp    4714 <DkStreamChangeName+0x84>
    474f:	90                   	nop    
    }

    ret = hops->rename(hdl, type, uri);

    if (ret < 0) {
        notify_failure(-ret);
    4750:	f7 d8                	neg    %eax
    4752:	48 63 f8             	movslq %eax,%rdi
    4755:	e8 f6 06 01 00       	callq  14e50 <notify_failure>
        return PAL_FALSE;
    475a:	eb b8                	jmp    4714 <DkStreamChangeName+0x84>
    475c:	0f 1f 40 00          	nopl   0x0(%rax)

0000000000004760 <_DkStreamRealpath>:
}

/* _DkStreamRealpath is used to obtain the real path of a stream. Some
   streams may not have a real path. */
const char * _DkStreamRealpath (PAL_HANDLE hdl)
{
    4760:	48 63 07             	movslq (%rdi),%rax
    4763:	55                   	push   %rbp
    4764:	48 89 e5             	mov    %rsp,%rbp
    const struct handle_ops * ops = HANDLE_OPS(hdl);
    4767:	8d 50 ff             	lea    -0x1(%rax),%edx
    476a:	83 fa 10             	cmp    $0x10,%edx
    476d:	76 04                	jbe    4773 <_DkStreamRealpath+0x13>

    if (!ops || !ops->getrealpath)
        return NULL;

    return ops->getrealpath(hdl);
}
    476f:	31 c0                	xor    %eax,%eax
    4771:	5d                   	pop    %rbp
    4772:	c3                   	retq   

/* _DkStreamRealpath is used to obtain the real path of a stream. Some
   streams may not have a real path. */
const char * _DkStreamRealpath (PAL_HANDLE hdl)
{
    const struct handle_ops * ops = HANDLE_OPS(hdl);
    4773:	48 8b 15 86 f2 21 00 	mov    0x21f286(%rip),%rdx        # 223a00 <_DYNAMIC+0x218>
    477a:	48 8b 04 c2          	mov    (%rdx,%rax,8),%rax

    if (!ops || !ops->getrealpath)
    477e:	48 85 c0             	test   %rax,%rax
    4781:	74 ec                	je     476f <_DkStreamRealpath+0xf>
    4783:	48 8b 00             	mov    (%rax),%rax
    4786:	48 85 c0             	test   %rax,%rax
    4789:	74 e4                	je     476f <_DkStreamRealpath+0xf>
        return NULL;

    return ops->getrealpath(hdl);
}
    478b:	5d                   	pop    %rbp
    const struct handle_ops * ops = HANDLE_OPS(hdl);

    if (!ops || !ops->getrealpath)
        return NULL;

    return ops->getrealpath(hdl);
    478c:	ff e0                	jmpq   *%rax
    478e:	90                   	nop    
    478f:	90                   	nop    

0000000000004790 <check_memory_overlap>:
#include "pal_error.h"
#include "pal_debug.h"
#include "api.h"

bool check_memory_overlap (void * addr, size_t size)
{
    4790:	48 8b 05 89 f2 21 00 	mov    0x21f289(%rip),%rax        # 223a20 <_DYNAMIC+0x238>
    void * pal_min = pal_config.lib_text_start;
    void * pal_max = pal_config.lib_data_end;

    void * overlap_start = pal_min < addr ? addr : pal_min;
    4797:	48 8b 50 58          	mov    0x58(%rax),%rdx
    void * overlap_end = addr + size < pal_max ? addr + size : pal_max;
    479b:	48 8b 40 70          	mov    0x70(%rax),%rax
bool check_memory_overlap (void * addr, size_t size)
{
    void * pal_min = pal_config.lib_text_start;
    void * pal_max = pal_config.lib_data_end;

    void * overlap_start = pal_min < addr ? addr : pal_min;
    479f:	48 39 d7             	cmp    %rdx,%rdi
    47a2:	48 0f 43 d7          	cmovae %rdi,%rdx
    void * overlap_end = addr + size < pal_max ? addr + size : pal_max;
    47a6:	48 01 fe             	add    %rdi,%rsi
    47a9:	48 39 f0             	cmp    %rsi,%rax
    47ac:	48 0f 42 f0          	cmovb  %rax,%rsi
    if (overlap_start < overlap_end) {
        printf("WARNING: Attempt to change PAL-internal memory!!!!"
               "   You seriously don't want to do this.\n");
        return true;
    }
    return false;
    47b0:	31 c0                	xor    %eax,%eax
    void * pal_max = pal_config.lib_data_end;

    void * overlap_start = pal_min < addr ? addr : pal_min;
    void * overlap_end = addr + size < pal_max ? addr + size : pal_max;

    if (overlap_start < overlap_end) {
    47b2:	48 39 f2             	cmp    %rsi,%rdx
    47b5:	72 09                	jb     47c0 <check_memory_overlap+0x30>
        printf("WARNING: Attempt to change PAL-internal memory!!!!"
               "   You seriously don't want to do this.\n");
        return true;
    }
    return false;
}
    47b7:	c3                   	retq   
    47b8:	0f 1f 84 00 00 00 00 	nopl   0x0(%rax,%rax,1)
    47bf:	00 
#include "pal_error.h"
#include "pal_debug.h"
#include "api.h"

bool check_memory_overlap (void * addr, size_t size)
{
    47c0:	55                   	push   %rbp

    void * overlap_start = pal_min < addr ? addr : pal_min;
    void * overlap_end = addr + size < pal_max ? addr + size : pal_max;

    if (overlap_start < overlap_end) {
        printf("WARNING: Attempt to change PAL-internal memory!!!!"
    47c1:	48 8d 3d 00 40 01 00 	lea    0x14000(%rip),%rdi        # 187c8 <handle_sizes.1924+0x48>
#include "pal_error.h"
#include "pal_debug.h"
#include "api.h"

bool check_memory_overlap (void * addr, size_t size)
{
    47c8:	48 89 e5             	mov    %rsp,%rbp

    void * overlap_start = pal_min < addr ? addr : pal_min;
    void * overlap_end = addr + size < pal_max ? addr + size : pal_max;

    if (overlap_start < overlap_end) {
        printf("WARNING: Attempt to change PAL-internal memory!!!!"
    47cb:	e8 50 46 00 00       	callq  8e20 <pal_printf>
               "   You seriously don't want to do this.\n");
        return true;
    47d0:	b8 01 00 00 00       	mov    $0x1,%eax
    }
    return false;
}
    47d5:	5d                   	pop    %rbp
    47d6:	c3                   	retq   
    47d7:	66 0f 1f 84 00 00 00 	nopw   0x0(%rax,%rax,1)
    47de:	00 00 

00000000000047e0 <DkVirtualMemoryAlloc>:

PAL_BUF
DkVirtualMemoryAlloc (PAL_BUF addr, PAL_NUM size, PAL_FLG alloc_type,
                      PAL_FLG prot)
{
    47e0:	55                   	push   %rbp
    47e1:	48 89 e5             	mov    %rsp,%rbp
    47e4:	53                   	push   %rbx
    47e5:	48 89 f3             	mov    %rsi,%rbx

static inline
void __store_frame (struct pal_frame * frame,
                    void * func, const char * funcname)
{
    frame->self = frame;
    47e8:	48 8d 45 80          	lea    -0x80(%rbp),%rax
    47ec:	48 81 ec 88 00 00 00 	sub    $0x88,%rsp
    47f3:	48 89 bd 78 ff ff ff 	mov    %rdi,-0x88(%rbp)
    frame->func = func;
    frame->funcname = funcname;
    frame->context = NULL;
    47fa:	48 c7 45 e0 00 00 00 	movq   $0x0,-0x20(%rbp)
    4801:	00 

static inline
void __store_frame (struct pal_frame * frame,
                    void * func, const char * funcname)
{
    frame->self = frame;
    4802:	48 89 45 80          	mov    %rax,-0x80(%rbp)
    frame->func = func;
    4806:	48 8b 05 63 f3 21 00 	mov    0x21f363(%rip),%rax        # 223b70 <_DYNAMIC+0x388>
    frame->funcname = funcname;
    frame->context = NULL;
    frame->retval = NULL;
    480d:	48 c7 45 e8 00 00 00 	movq   $0x0,-0x18(%rbp)
    4814:	00 
static inline
void __store_frame (struct pal_frame * frame,
                    void * func, const char * funcname)
{
    frame->self = frame;
    frame->func = func;
    4815:	48 89 45 88          	mov    %rax,-0x78(%rbp)
    frame->funcname = funcname;
    4819:	48 8d 05 03 40 01 00 	lea    0x14003(%rip),%rax        # 18823 <handle_sizes.1924+0xa3>
    4820:	48 89 45 90          	mov    %rax,-0x70(%rbp)
    frame->context = NULL;
    frame->retval = NULL;
    arch_store_frame(&frame->arch)
    4824:	48 89 e0             	mov    %rsp,%rax
    4827:	48 89 45 98          	mov    %rax,-0x68(%rbp)
    482b:	48 89 e8             	mov    %rbp,%rax
    482e:	48 89 45 a0          	mov    %rax,-0x60(%rbp)
    4832:	48 89 d8             	mov    %rbx,%rax
    4835:	48 89 45 a8          	mov    %rax,-0x58(%rbp)
    4839:	48 89 f0             	mov    %rsi,%rax
    483c:	48 89 45 b0          	mov    %rax,-0x50(%rbp)
    4840:	48 89 f8             	mov    %rdi,%rax
    4843:	48 89 45 b8          	mov    %rax,-0x48(%rbp)
    4847:	4c 89 e0             	mov    %r12,%rax
    484a:	48 89 45 c0          	mov    %rax,-0x40(%rbp)
    484e:	4c 89 e8             	mov    %r13,%rax
    4851:	48 89 45 c8          	mov    %rax,-0x38(%rbp)
    4855:	4c 89 f0             	mov    %r14,%rax
    4858:	48 89 45 d0          	mov    %rax,-0x30(%rbp)
    485c:	4c 89 f8             	mov    %r15,%rax
    store_frame(VirtualMemoryAlloc);

    if ((addr && !ALLOC_ALIGNED(addr)) || !size || !ALLOC_ALIGNED(size)) {
    485f:	48 8b bd 78 ff ff ff 	mov    -0x88(%rbp),%rdi
    4866:	48 89 45 d8          	mov    %rax,-0x28(%rbp)
    486a:	48 85 ff             	test   %rdi,%rdi
    486d:	0f 84 9d 00 00 00    	je     4910 <DkVirtualMemoryAlloc+0x130>
    4873:	48 8b 05 16 f1 21 00 	mov    0x21f116(%rip),%rax        # 223990 <_DYNAMIC+0x1a8>
    487a:	48 83 38 00          	cmpq   $0x0,(%rax)
    487e:	74 70                	je     48f0 <DkVirtualMemoryAlloc+0x110>
    4880:	48 8b 05 71 f2 21 00 	mov    0x21f271(%rip),%rax        # 223af8 <_DYNAMIC+0x310>
    4887:	48 89 fe             	mov    %rdi,%rsi
    488a:	48 8b 00             	mov    (%rax),%rax
    488d:	48 21 c6             	and    %rax,%rsi
    4890:	48 39 f7             	cmp    %rsi,%rdi
    4893:	75 5b                	jne    48f0 <DkVirtualMemoryAlloc+0x110>
    4895:	48 85 db             	test   %rbx,%rbx
    4898:	74 56                	je     48f0 <DkVirtualMemoryAlloc+0x110>
    489a:	48 21 d8             	and    %rbx,%rax
    489d:	48 39 d8             	cmp    %rbx,%rax
    48a0:	75 4e                	jne    48f0 <DkVirtualMemoryAlloc+0x110>
        notify_failure(PAL_ERROR_INVAL);
        return NULL;
    }

    if (check_memory_overlap(addr, size)) {
    48a2:	48 89 de             	mov    %rbx,%rsi
    48a5:	89 8d 70 ff ff ff    	mov    %ecx,-0x90(%rbp)
    48ab:	89 95 74 ff ff ff    	mov    %edx,-0x8c(%rbp)
    48b1:	e8 da fe ff ff       	callq  4790 <check_memory_overlap>
    48b6:	84 c0                	test   %al,%al
    48b8:	8b 95 74 ff ff ff    	mov    -0x8c(%rbp),%edx
    48be:	8b 8d 70 ff ff ff    	mov    -0x90(%rbp),%ecx
    48c4:	75 6b                	jne    4931 <DkVirtualMemoryAlloc+0x151>
        notify_failure(PAL_ERROR_DENIED);
        return NULL;
    }

    int ret = _DkVirtualMemoryAlloc(&addr, size, alloc_type, prot);
    48c6:	48 8d bd 78 ff ff ff 	lea    -0x88(%rbp),%rdi
    48cd:	48 89 de             	mov    %rbx,%rsi
    48d0:	e8 bb b8 00 00       	callq  10190 <_DkVirtualMemoryAlloc>

    if (ret < 0) {
    48d5:	85 c0                	test   %eax,%eax
    48d7:	78 66                	js     493f <DkVirtualMemoryAlloc+0x15f>
        notify_failure(-ret);
        return NULL;
    }

    return addr;
    48d9:	48 8b 85 78 ff ff ff 	mov    -0x88(%rbp),%rax
}
    48e0:	48 81 c4 88 00 00 00 	add    $0x88,%rsp
    48e7:	5b                   	pop    %rbx
    48e8:	5d                   	pop    %rbp
    48e9:	c3                   	retq   
    48ea:	66 0f 1f 44 00 00    	nopw   0x0(%rax,%rax,1)
                      PAL_FLG prot)
{
    store_frame(VirtualMemoryAlloc);

    if ((addr && !ALLOC_ALIGNED(addr)) || !size || !ALLOC_ALIGNED(size)) {
        notify_failure(PAL_ERROR_INVAL);
    48f0:	bf 04 00 00 00       	mov    $0x4,%edi
    48f5:	e8 56 05 01 00       	callq  14e50 <notify_failure>
        return NULL;
    48fa:	31 c0                	xor    %eax,%eax
        notify_failure(-ret);
        return NULL;
    }

    return addr;
}
    48fc:	48 81 c4 88 00 00 00 	add    $0x88,%rsp
    4903:	5b                   	pop    %rbx
    4904:	5d                   	pop    %rbp
    4905:	c3                   	retq   
    4906:	66 2e 0f 1f 84 00 00 	nopw   %cs:0x0(%rax,%rax,1)
    490d:	00 00 00 
DkVirtualMemoryAlloc (PAL_BUF addr, PAL_NUM size, PAL_FLG alloc_type,
                      PAL_FLG prot)
{
    store_frame(VirtualMemoryAlloc);

    if ((addr && !ALLOC_ALIGNED(addr)) || !size || !ALLOC_ALIGNED(size)) {
    4910:	48 85 f6             	test   %rsi,%rsi
    4913:	74 db                	je     48f0 <DkVirtualMemoryAlloc+0x110>
    4915:	48 8b 05 74 f0 21 00 	mov    0x21f074(%rip),%rax        # 223990 <_DYNAMIC+0x1a8>
    491c:	48 83 38 00          	cmpq   $0x0,(%rax)
    4920:	74 ce                	je     48f0 <DkVirtualMemoryAlloc+0x110>
    4922:	48 8b 05 cf f1 21 00 	mov    0x21f1cf(%rip),%rax        # 223af8 <_DYNAMIC+0x310>
    4929:	48 8b 00             	mov    (%rax),%rax
    492c:	e9 69 ff ff ff       	jmpq   489a <DkVirtualMemoryAlloc+0xba>
        notify_failure(PAL_ERROR_INVAL);
        return NULL;
    }

    if (check_memory_overlap(addr, size)) {
        notify_failure(PAL_ERROR_DENIED);
    4931:	bf 06 00 00 00       	mov    $0x6,%edi
    4936:	e8 15 05 01 00       	callq  14e50 <notify_failure>
        return NULL;
    493b:	31 c0                	xor    %eax,%eax
    493d:	eb bd                	jmp    48fc <DkVirtualMemoryAlloc+0x11c>
    }

    int ret = _DkVirtualMemoryAlloc(&addr, size, alloc_type, prot);

    if (ret < 0) {
        notify_failure(-ret);
    493f:	f7 d8                	neg    %eax
    4941:	48 63 f8             	movslq %eax,%rdi
    4944:	e8 07 05 01 00       	callq  14e50 <notify_failure>
        return NULL;
    4949:	31 c0                	xor    %eax,%eax
    494b:	eb af                	jmp    48fc <DkVirtualMemoryAlloc+0x11c>
    494d:	0f 1f 00             	nopl   (%rax)

0000000000004950 <DkVirtualMemoryFree>:
    return addr;
}

void
DkVirtualMemoryFree (PAL_BUF addr, PAL_NUM size)
{
    4950:	55                   	push   %rbp
    4951:	48 89 e5             	mov    %rsp,%rbp
    4954:	41 54                	push   %r12
    4956:	53                   	push   %rbx

static inline
void __store_frame (struct pal_frame * frame,
                    void * func, const char * funcname)
{
    frame->self = frame;
    4957:	48 8d 45 80          	lea    -0x80(%rbp),%rax
    495b:	48 83 ec 70          	sub    $0x70,%rsp
    frame->func = func;
    frame->funcname = funcname;
    frame->context = NULL;
    495f:	48 c7 45 e0 00 00 00 	movq   $0x0,-0x20(%rbp)
    4966:	00 
    frame->retval = NULL;
    4967:	48 c7 45 e8 00 00 00 	movq   $0x0,-0x18(%rbp)
    496e:	00 

static inline
void __store_frame (struct pal_frame * frame,
                    void * func, const char * funcname)
{
    frame->self = frame;
    496f:	48 89 45 80          	mov    %rax,-0x80(%rbp)
    frame->func = func;
    4973:	48 8b 05 be f0 21 00 	mov    0x21f0be(%rip),%rax        # 223a38 <_DYNAMIC+0x250>
    497a:	48 89 45 88          	mov    %rax,-0x78(%rbp)
    frame->funcname = funcname;
    497e:	48 8d 05 b3 3e 01 00 	lea    0x13eb3(%rip),%rax        # 18838 <handle_sizes.1924+0xb8>
    4985:	48 89 45 90          	mov    %rax,-0x70(%rbp)
    frame->context = NULL;
    frame->retval = NULL;
    arch_store_frame(&frame->arch)
    4989:	48 89 e0             	mov    %rsp,%rax
    498c:	48 89 45 98          	mov    %rax,-0x68(%rbp)
    4990:	48 89 e8             	mov    %rbp,%rax
    4993:	48 89 45 a0          	mov    %rax,-0x60(%rbp)
    4997:	48 89 d8             	mov    %rbx,%rax
    499a:	48 89 45 a8          	mov    %rax,-0x58(%rbp)
    499e:	48 89 f0             	mov    %rsi,%rax
    49a1:	48 89 45 b0          	mov    %rax,-0x50(%rbp)
    49a5:	48 89 f8             	mov    %rdi,%rax
    49a8:	48 89 45 b8          	mov    %rax,-0x48(%rbp)
    49ac:	4c 89 e0             	mov    %r12,%rax
    49af:	48 89 45 c0          	mov    %rax,-0x40(%rbp)
    49b3:	4c 89 e8             	mov    %r13,%rax
    49b6:	48 89 45 c8          	mov    %rax,-0x38(%rbp)
    49ba:	4c 89 f0             	mov    %r14,%rax
    49bd:	48 89 45 d0          	mov    %rax,-0x30(%rbp)
    49c1:	4c 89 f8             	mov    %r15,%rax
    store_frame(VirtualMemoryFree);

    if (!addr || !size) {
    49c4:	48 85 ff             	test   %rdi,%rdi
    49c7:	48 89 45 d8          	mov    %rax,-0x28(%rbp)
    49cb:	74 27                	je     49f4 <DkVirtualMemoryFree+0xa4>
    49cd:	48 85 f6             	test   %rsi,%rsi
    49d0:	74 22                	je     49f4 <DkVirtualMemoryFree+0xa4>
        notify_failure(PAL_ERROR_INVAL);
        return;
    }

    if (!ALLOC_ALIGNED(addr) || !ALLOC_ALIGNED(size)) {
    49d2:	48 8b 05 b7 ef 21 00 	mov    0x21efb7(%rip),%rax        # 223990 <_DYNAMIC+0x1a8>
    49d9:	48 83 38 00          	cmpq   $0x0,(%rax)
    49dd:	74 15                	je     49f4 <DkVirtualMemoryFree+0xa4>
    49df:	48 8b 05 12 f1 21 00 	mov    0x21f112(%rip),%rax        # 223af8 <_DYNAMIC+0x310>
    49e6:	48 89 fa             	mov    %rdi,%rdx
    49e9:	48 8b 00             	mov    (%rax),%rax
    49ec:	48 21 c2             	and    %rax,%rdx
    49ef:	48 39 d7             	cmp    %rdx,%rdi
    49f2:	74 1c                	je     4a10 <DkVirtualMemoryFree+0xc0>
DkVirtualMemoryFree (PAL_BUF addr, PAL_NUM size)
{
    store_frame(VirtualMemoryFree);

    if (!addr || !size) {
        notify_failure(PAL_ERROR_INVAL);
    49f4:	bf 04 00 00 00       	mov    $0x4,%edi
    }

    int ret = _DkVirtualMemoryFree(addr, size);
    if (ret < 0)
        notify_failure(-ret);
}
    49f9:	48 83 c4 70          	add    $0x70,%rsp
    49fd:	5b                   	pop    %rbx
    49fe:	41 5c                	pop    %r12
    4a00:	5d                   	pop    %rbp
        return;
    }

    int ret = _DkVirtualMemoryFree(addr, size);
    if (ret < 0)
        notify_failure(-ret);
    4a01:	e9 4a 04 01 00       	jmpq   14e50 <notify_failure>
    4a06:	66 2e 0f 1f 84 00 00 	nopw   %cs:0x0(%rax,%rax,1)
    4a0d:	00 00 00 
    if (!addr || !size) {
        notify_failure(PAL_ERROR_INVAL);
        return;
    }

    if (!ALLOC_ALIGNED(addr) || !ALLOC_ALIGNED(size)) {
    4a10:	48 21 f0             	and    %rsi,%rax
    4a13:	48 39 f0             	cmp    %rsi,%rax
    4a16:	49 89 c4             	mov    %rax,%r12
    4a19:	75 d9                	jne    49f4 <DkVirtualMemoryFree+0xa4>
        notify_failure(PAL_ERROR_INVAL);
        return;
    }

    if (check_memory_overlap(addr, size)) {
    4a1b:	48 89 c6             	mov    %rax,%rsi
    4a1e:	48 89 fb             	mov    %rdi,%rbx
    4a21:	e8 6a fd ff ff       	callq  4790 <check_memory_overlap>
    4a26:	84 c0                	test   %al,%al
        notify_failure(PAL_ERROR_DENIED);
    4a28:	bf 06 00 00 00       	mov    $0x6,%edi
    if (!ALLOC_ALIGNED(addr) || !ALLOC_ALIGNED(size)) {
        notify_failure(PAL_ERROR_INVAL);
        return;
    }

    if (check_memory_overlap(addr, size)) {
    4a2d:	75 ca                	jne    49f9 <DkVirtualMemoryFree+0xa9>
        notify_failure(PAL_ERROR_DENIED);
        return;
    }

    int ret = _DkVirtualMemoryFree(addr, size);
    4a2f:	4c 89 e6             	mov    %r12,%rsi
    4a32:	48 89 df             	mov    %rbx,%rdi
    4a35:	e8 d6 b8 00 00       	callq  10310 <_DkVirtualMemoryFree>
    if (ret < 0)
    4a3a:	85 c0                	test   %eax,%eax
    4a3c:	78 09                	js     4a47 <DkVirtualMemoryFree+0xf7>
        notify_failure(-ret);
}
    4a3e:	48 83 c4 70          	add    $0x70,%rsp
    4a42:	5b                   	pop    %rbx
    4a43:	41 5c                	pop    %r12
    4a45:	5d                   	pop    %rbp
    4a46:	c3                   	retq   
        return;
    }

    int ret = _DkVirtualMemoryFree(addr, size);
    if (ret < 0)
        notify_failure(-ret);
    4a47:	f7 d8                	neg    %eax
    4a49:	48 63 f8             	movslq %eax,%rdi
    4a4c:	eb ab                	jmp    49f9 <DkVirtualMemoryFree+0xa9>
    4a4e:	66 90                	xchg   %ax,%ax

0000000000004a50 <DkVirtualMemoryProtect>:
}

PAL_BOL
DkVirtualMemoryProtect (PAL_BUF addr, PAL_NUM size, PAL_FLG prot)
{
    4a50:	55                   	push   %rbp
    4a51:	48 89 e5             	mov    %rsp,%rbp
    4a54:	41 55                	push   %r13
    4a56:	41 54                	push   %r12

static inline
void __store_frame (struct pal_frame * frame,
                    void * func, const char * funcname)
{
    frame->self = frame;
    4a58:	48 8d 85 70 ff ff ff 	lea    -0x90(%rbp),%rax
    4a5f:	53                   	push   %rbx
    4a60:	49 89 fc             	mov    %rdi,%r12
    4a63:	48 81 ec 88 00 00 00 	sub    $0x88,%rsp
    4a6a:	48 89 85 70 ff ff ff 	mov    %rax,-0x90(%rbp)
    frame->func = func;
    4a71:	48 8b 05 d0 ee 21 00 	mov    0x21eed0(%rip),%rax        # 223948 <_DYNAMIC+0x160>
    frame->funcname = funcname;
    frame->context = NULL;
    4a78:	48 c7 45 d0 00 00 00 	movq   $0x0,-0x30(%rbp)
    4a7f:	00 
    frame->retval = NULL;
    4a80:	48 c7 45 d8 00 00 00 	movq   $0x0,-0x28(%rbp)
    4a87:	00 
static inline
void __store_frame (struct pal_frame * frame,
                    void * func, const char * funcname)
{
    frame->self = frame;
    frame->func = func;
    4a88:	48 89 85 78 ff ff ff 	mov    %rax,-0x88(%rbp)
    frame->funcname = funcname;
    4a8f:	48 8d 05 b6 3d 01 00 	lea    0x13db6(%rip),%rax        # 1884c <handle_sizes.1924+0xcc>
    4a96:	48 89 45 80          	mov    %rax,-0x80(%rbp)
    frame->context = NULL;
    frame->retval = NULL;
    arch_store_frame(&frame->arch)
    4a9a:	48 89 e0             	mov    %rsp,%rax
    4a9d:	48 89 45 88          	mov    %rax,-0x78(%rbp)
    4aa1:	48 89 e8             	mov    %rbp,%rax
    4aa4:	48 89 45 90          	mov    %rax,-0x70(%rbp)
    4aa8:	48 89 d8             	mov    %rbx,%rax
    4aab:	48 89 45 98          	mov    %rax,-0x68(%rbp)
    4aaf:	48 89 f0             	mov    %rsi,%rax
    4ab2:	48 89 45 a0          	mov    %rax,-0x60(%rbp)
    4ab6:	48 89 f8             	mov    %rdi,%rax
    4ab9:	48 89 45 a8          	mov    %rax,-0x58(%rbp)
    4abd:	4c 89 e0             	mov    %r12,%rax
    4ac0:	48 89 45 b0          	mov    %rax,-0x50(%rbp)
    4ac4:	4c 89 e8             	mov    %r13,%rax
    4ac7:	48 89 45 b8          	mov    %rax,-0x48(%rbp)
    4acb:	4c 89 f0             	mov    %r14,%rax
    4ace:	48 89 45 c0          	mov    %rax,-0x40(%rbp)
    4ad2:	4c 89 f8             	mov    %r15,%rax
    store_frame(VirtualMemoryProtect);

    if (!addr || !size) {
    4ad5:	48 85 ff             	test   %rdi,%rdi
    4ad8:	48 89 45 c8          	mov    %rax,-0x38(%rbp)
    4adc:	0f 94 c3             	sete   %bl
    4adf:	48 85 f6             	test   %rsi,%rsi
    4ae2:	0f 94 c0             	sete   %al
    4ae5:	08 c3                	or     %al,%bl
    4ae7:	75 22                	jne    4b0b <DkVirtualMemoryProtect+0xbb>
        notify_failure(PAL_ERROR_INVAL);
        return PAL_FALSE;
    }

    if (!ALLOC_ALIGNED(addr) || !ALLOC_ALIGNED(size)) {
    4ae9:	48 8b 05 a0 ee 21 00 	mov    0x21eea0(%rip),%rax        # 223990 <_DYNAMIC+0x1a8>
    4af0:	48 83 38 00          	cmpq   $0x0,(%rax)
    4af4:	74 15                	je     4b0b <DkVirtualMemoryProtect+0xbb>
    4af6:	48 8b 05 fb ef 21 00 	mov    0x21effb(%rip),%rax        # 223af8 <_DYNAMIC+0x310>
    4afd:	48 89 f9             	mov    %rdi,%rcx
    4b00:	48 8b 00             	mov    (%rax),%rax
    4b03:	48 21 c1             	and    %rax,%rcx
    4b06:	48 39 cf             	cmp    %rcx,%rdi
    4b09:	74 25                	je     4b30 <DkVirtualMemoryProtect+0xe0>
DkVirtualMemoryProtect (PAL_BUF addr, PAL_NUM size, PAL_FLG prot)
{
    store_frame(VirtualMemoryProtect);

    if (!addr || !size) {
        notify_failure(PAL_ERROR_INVAL);
    4b0b:	bf 04 00 00 00       	mov    $0x4,%edi
        return PAL_FALSE;
    4b10:	31 db                	xor    %ebx,%ebx
DkVirtualMemoryProtect (PAL_BUF addr, PAL_NUM size, PAL_FLG prot)
{
    store_frame(VirtualMemoryProtect);

    if (!addr || !size) {
        notify_failure(PAL_ERROR_INVAL);
    4b12:	e8 39 03 01 00       	callq  14e50 <notify_failure>
        notify_failure(-ret);
        return PAL_FALSE;
    }

    return PAL_TRUE;
}
    4b17:	48 81 c4 88 00 00 00 	add    $0x88,%rsp
    4b1e:	89 d8                	mov    %ebx,%eax
    4b20:	5b                   	pop    %rbx
    4b21:	41 5c                	pop    %r12
    4b23:	41 5d                	pop    %r13
    4b25:	5d                   	pop    %rbp
    4b26:	c3                   	retq   
    4b27:	66 0f 1f 84 00 00 00 	nopw   0x0(%rax,%rax,1)
    4b2e:	00 00 
    if (!addr || !size) {
        notify_failure(PAL_ERROR_INVAL);
        return PAL_FALSE;
    }

    if (!ALLOC_ALIGNED(addr) || !ALLOC_ALIGNED(size)) {
    4b30:	48 21 f0             	and    %rsi,%rax
    4b33:	48 39 f0             	cmp    %rsi,%rax
    4b36:	49 89 c5             	mov    %rax,%r13
    4b39:	75 d0                	jne    4b0b <DkVirtualMemoryProtect+0xbb>
        notify_failure(PAL_ERROR_INVAL);
        return PAL_FALSE;
    }

    if (check_memory_overlap(addr, size)) {
    4b3b:	48 89 c6             	mov    %rax,%rsi
    4b3e:	89 95 6c ff ff ff    	mov    %edx,-0x94(%rbp)
    4b44:	e8 47 fc ff ff       	callq  4790 <check_memory_overlap>
    4b49:	84 c0                	test   %al,%al
    4b4b:	8b 95 6c ff ff ff    	mov    -0x94(%rbp),%edx
    4b51:	75 1d                	jne    4b70 <DkVirtualMemoryProtect+0x120>
        notify_failure(PAL_ERROR_DENIED);
        return NULL;
    }

    int ret = _DkVirtualMemoryProtect(addr, size, prot);
    4b53:	4c 89 ee             	mov    %r13,%rsi
    4b56:	4c 89 e7             	mov    %r12,%rdi
    4b59:	e8 c2 b8 00 00       	callq  10420 <_DkVirtualMemoryProtect>

    if (ret < 0) {
    4b5e:	85 c0                	test   %eax,%eax
    4b60:	78 1a                	js     4b7c <DkVirtualMemoryProtect+0x12c>
        notify_failure(-ret);
        return PAL_FALSE;
    }

    return PAL_TRUE;
    4b62:	bb 01 00 00 00       	mov    $0x1,%ebx
    4b67:	eb ae                	jmp    4b17 <DkVirtualMemoryProtect+0xc7>
    4b69:	0f 1f 80 00 00 00 00 	nopl   0x0(%rax)
        notify_failure(PAL_ERROR_INVAL);
        return PAL_FALSE;
    }

    if (check_memory_overlap(addr, size)) {
        notify_failure(PAL_ERROR_DENIED);
    4b70:	bf 06 00 00 00       	mov    $0x6,%edi
    4b75:	e8 d6 02 01 00       	callq  14e50 <notify_failure>
    4b7a:	eb 9b                	jmp    4b17 <DkVirtualMemoryProtect+0xc7>
    }

    int ret = _DkVirtualMemoryProtect(addr, size, prot);

    if (ret < 0) {
        notify_failure(-ret);
    4b7c:	f7 d8                	neg    %eax
    4b7e:	48 63 f8             	movslq %eax,%rdi
    4b81:	e8 ca 02 01 00       	callq  14e50 <notify_failure>
    4b86:	eb 8f                	jmp    4b17 <DkVirtualMemoryProtect+0xc7>
    4b88:	90                   	nop    
    4b89:	90                   	nop    
    4b8a:	90                   	nop    
    4b8b:	90                   	nop    
    4b8c:	90                   	nop    
    4b8d:	90                   	nop    
    4b8e:	90                   	nop    
    4b8f:	90                   	nop    

0000000000004b90 <DkThreadCreate>:

/* PAL call DkThreadCreate: create a thread inside the current
   process */
PAL_HANDLE
DkThreadCreate (PAL_PTR addr, PAL_PTR param, PAL_FLG flags)
{
    4b90:	55                   	push   %rbp
    4b91:	48 89 f8             	mov    %rdi,%rax
void __store_frame (struct pal_frame * frame,
                    void * func, const char * funcname)
{
    frame->self = frame;
    frame->func = func;
    frame->funcname = funcname;
    4b94:	48 8d 3d c8 3c 01 00 	lea    0x13cc8(%rip),%rdi        # 18863 <handle_sizes.1924+0xe3>
    4b9b:	48 89 e5             	mov    %rsp,%rbp
    4b9e:	48 83 c4 80          	add    $0xffffffffffffff80,%rsp

static inline
void __store_frame (struct pal_frame * frame,
                    void * func, const char * funcname)
{
    frame->self = frame;
    4ba2:	48 8d 4d 90          	lea    -0x70(%rbp),%rcx
    frame->func = func;
    frame->funcname = funcname;
    4ba6:	48 89 7d a0          	mov    %rdi,-0x60(%rbp)
    frame->context = NULL;
    4baa:	48 c7 45 f0 00 00 00 	movq   $0x0,-0x10(%rbp)
    4bb1:	00 
    frame->retval = NULL;
    4bb2:	48 c7 45 f8 00 00 00 	movq   $0x0,-0x8(%rbp)
    4bb9:	00 

static inline
void __store_frame (struct pal_frame * frame,
                    void * func, const char * funcname)
{
    frame->self = frame;
    4bba:	48 89 4d 90          	mov    %rcx,-0x70(%rbp)
    frame->func = func;
    4bbe:	48 8b 0d d3 ed 21 00 	mov    0x21edd3(%rip),%rcx        # 223998 <_DYNAMIC+0x1b0>
    4bc5:	48 89 4d 98          	mov    %rcx,-0x68(%rbp)
    frame->funcname = funcname;
    frame->context = NULL;
    frame->retval = NULL;
    arch_store_frame(&frame->arch)
    4bc9:	48 89 e1             	mov    %rsp,%rcx
    4bcc:	48 89 4d a8          	mov    %rcx,-0x58(%rbp)
    4bd0:	48 89 e9             	mov    %rbp,%rcx
    4bd3:	48 89 4d b0          	mov    %rcx,-0x50(%rbp)
    4bd7:	48 89 d9             	mov    %rbx,%rcx
    4bda:	48 89 4d b8          	mov    %rcx,-0x48(%rbp)
    4bde:	48 89 f1             	mov    %rsi,%rcx
    4be1:	48 89 4d c0          	mov    %rcx,-0x40(%rbp)
    4be5:	48 89 f9             	mov    %rdi,%rcx
    4be8:	48 89 4d c8          	mov    %rcx,-0x38(%rbp)
    4bec:	4c 89 e1             	mov    %r12,%rcx
    4bef:	48 89 4d d0          	mov    %rcx,-0x30(%rbp)
    4bf3:	4c 89 e9             	mov    %r13,%rcx
    4bf6:	48 89 4d d8          	mov    %rcx,-0x28(%rbp)
    4bfa:	4c 89 f1             	mov    %r14,%rcx
    4bfd:	48 89 4d e0          	mov    %rcx,-0x20(%rbp)
    4c01:	4c 89 f9             	mov    %r15,%rcx
    store_frame(ThreadCreate);

    PAL_HANDLE handle = NULL;
    int ret = _DkThreadCreate (&handle, (int (*)(void *)) addr,
    4c04:	48 8d 7d 88          	lea    -0x78(%rbp),%rdi
    4c08:	48 89 4d e8          	mov    %rcx,-0x18(%rbp)
    4c0c:	89 d1                	mov    %edx,%ecx
    4c0e:	48 89 f2             	mov    %rsi,%rdx
    4c11:	48 89 c6             	mov    %rax,%rsi
PAL_HANDLE
DkThreadCreate (PAL_PTR addr, PAL_PTR param, PAL_FLG flags)
{
    store_frame(ThreadCreate);

    PAL_HANDLE handle = NULL;
    4c14:	48 c7 45 88 00 00 00 	movq   $0x0,-0x78(%rbp)
    4c1b:	00 
    int ret = _DkThreadCreate (&handle, (int (*)(void *)) addr,
    4c1c:	e8 af ba 00 00       	callq  106d0 <_DkThreadCreate>
                               param, flags);
    if (ret < 0) {
    4c21:	85 c0                	test   %eax,%eax
    4c23:	78 0b                	js     4c30 <DkThreadCreate+0xa0>
        notify_failure (-ret);
        return NULL;
    }

    return handle;
    4c25:	48 8b 45 88          	mov    -0x78(%rbp),%rax
}
    4c29:	c9                   	leaveq 
    4c2a:	c3                   	retq   
    4c2b:	0f 1f 44 00 00       	nopl   0x0(%rax,%rax,1)

    PAL_HANDLE handle = NULL;
    int ret = _DkThreadCreate (&handle, (int (*)(void *)) addr,
                               param, flags);
    if (ret < 0) {
        notify_failure (-ret);
    4c30:	f7 d8                	neg    %eax
    4c32:	48 63 f8             	movslq %eax,%rdi
    4c35:	e8 16 02 01 00       	callq  14e50 <notify_failure>
        return NULL;
    4c3a:	31 c0                	xor    %eax,%eax
    }

    return handle;
}
    4c3c:	c9                   	leaveq 
    4c3d:	c3                   	retq   
    4c3e:	66 90                	xchg   %ax,%ax

0000000000004c40 <DkThreadDelayExecution>:

/* PAL call DkThreadDelayExecution. Delay the current thread
   (sleep) for the given duration */
PAL_NUM
DkThreadDelayExecution (PAL_NUM duration)
{
    4c40:	55                   	push   %rbp
    4c41:	48 89 e5             	mov    %rsp,%rbp
    4c44:	48 83 c4 80          	add    $0xffffffffffffff80,%rsp

static inline
void __store_frame (struct pal_frame * frame,
                    void * func, const char * funcname)
{
    frame->self = frame;
    4c48:	48 8d 45 90          	lea    -0x70(%rbp),%rax
    frame->func = func;
    frame->funcname = funcname;
    frame->context = NULL;
    4c4c:	48 c7 45 f0 00 00 00 	movq   $0x0,-0x10(%rbp)
    4c53:	00 
    frame->retval = NULL;
    4c54:	48 c7 45 f8 00 00 00 	movq   $0x0,-0x8(%rbp)
    4c5b:	00 

static inline
void __store_frame (struct pal_frame * frame,
                    void * func, const char * funcname)
{
    frame->self = frame;
    4c5c:	48 89 45 90          	mov    %rax,-0x70(%rbp)
    frame->func = func;
    4c60:	48 8b 05 51 ed 21 00 	mov    0x21ed51(%rip),%rax        # 2239b8 <_DYNAMIC+0x1d0>
    4c67:	48 89 45 98          	mov    %rax,-0x68(%rbp)
    frame->funcname = funcname;
    4c6b:	48 8d 05 00 3c 01 00 	lea    0x13c00(%rip),%rax        # 18872 <handle_sizes.1924+0xf2>
    4c72:	48 89 45 a0          	mov    %rax,-0x60(%rbp)
    frame->context = NULL;
    frame->retval = NULL;
    arch_store_frame(&frame->arch)
    4c76:	48 89 e0             	mov    %rsp,%rax
    4c79:	48 89 45 a8          	mov    %rax,-0x58(%rbp)
    4c7d:	48 89 e8             	mov    %rbp,%rax
    4c80:	48 89 45 b0          	mov    %rax,-0x50(%rbp)
    4c84:	48 89 d8             	mov    %rbx,%rax
    4c87:	48 89 45 b8          	mov    %rax,-0x48(%rbp)
    4c8b:	48 89 f0             	mov    %rsi,%rax
    4c8e:	48 89 45 c0          	mov    %rax,-0x40(%rbp)
    4c92:	48 89 f8             	mov    %rdi,%rax
    4c95:	48 89 45 c8          	mov    %rax,-0x38(%rbp)
    4c99:	4c 89 e0             	mov    %r12,%rax
    4c9c:	48 89 45 d0          	mov    %rax,-0x30(%rbp)
    4ca0:	4c 89 e8             	mov    %r13,%rax
    4ca3:	48 89 45 d8          	mov    %rax,-0x28(%rbp)
    4ca7:	4c 89 f0             	mov    %r14,%rax
    4caa:	48 89 45 e0          	mov    %rax,-0x20(%rbp)
    4cae:	4c 89 f8             	mov    %r15,%rax
    store_frame(ThreadDelayExecution);

    unsigned long dur = duration;
    4cb1:	48 89 7d 88          	mov    %rdi,-0x78(%rbp)
    int ret = _DkThreadDelayExecution(&dur);
    4cb5:	48 8d 7d 88          	lea    -0x78(%rbp),%rdi
    4cb9:	48 89 45 e8          	mov    %rax,-0x18(%rbp)
    4cbd:	e8 1e b9 00 00       	callq  105e0 <_DkThreadDelayExecution>

    if (ret < 0)
    4cc2:	85 c0                	test   %eax,%eax
    4cc4:	78 0a                	js     4cd0 <DkThreadDelayExecution+0x90>
        notify_failure(PAL_ERROR_INTERRUPTED);

    return dur;
}
    4cc6:	48 8b 45 88          	mov    -0x78(%rbp),%rax
    4cca:	c9                   	leaveq 
    4ccb:	c3                   	retq   
    4ccc:	0f 1f 40 00          	nopl   0x0(%rax)

    unsigned long dur = duration;
    int ret = _DkThreadDelayExecution(&dur);

    if (ret < 0)
        notify_failure(PAL_ERROR_INTERRUPTED);
    4cd0:	bf 0d 00 00 00       	mov    $0xd,%edi
    4cd5:	e8 76 01 01 00       	callq  14e50 <notify_failure>

    return dur;
}
    4cda:	48 8b 45 88          	mov    -0x78(%rbp),%rax
    4cde:	c9                   	leaveq 
    4cdf:	c3                   	retq   

0000000000004ce0 <DkThreadExit>:
}

/* PAL call DkThreadExit: simply exit the current thread
   no matter what */
void DkThreadExit (void)
{
    4ce0:	55                   	push   %rbp
    4ce1:	48 89 e5             	mov    %rsp,%rbp
    4ce4:	48 83 ec 70          	sub    $0x70,%rsp

static inline
void __store_frame (struct pal_frame * frame,
                    void * func, const char * funcname)
{
    frame->self = frame;
    4ce8:	48 8d 45 90          	lea    -0x70(%rbp),%rax
    frame->func = func;
    frame->funcname = funcname;
    frame->context = NULL;
    4cec:	48 c7 45 f0 00 00 00 	movq   $0x0,-0x10(%rbp)
    4cf3:	00 
    frame->retval = NULL;
    4cf4:	48 c7 45 f8 00 00 00 	movq   $0x0,-0x8(%rbp)
    4cfb:	00 

static inline
void __store_frame (struct pal_frame * frame,
                    void * func, const char * funcname)
{
    frame->self = frame;
    4cfc:	48 89 45 90          	mov    %rax,-0x70(%rbp)
    frame->func = func;
    4d00:	48 8b 05 71 ed 21 00 	mov    0x21ed71(%rip),%rax        # 223a78 <_DYNAMIC+0x290>
    4d07:	48 89 45 98          	mov    %rax,-0x68(%rbp)
    frame->funcname = funcname;
    4d0b:	48 8d 05 77 3b 01 00 	lea    0x13b77(%rip),%rax        # 18889 <handle_sizes.1924+0x109>
    4d12:	48 89 45 a0          	mov    %rax,-0x60(%rbp)
    frame->context = NULL;
    frame->retval = NULL;
    arch_store_frame(&frame->arch)
    4d16:	48 89 e0             	mov    %rsp,%rax
    4d19:	48 89 45 a8          	mov    %rax,-0x58(%rbp)
    4d1d:	48 89 e8             	mov    %rbp,%rax
    4d20:	48 89 45 b0          	mov    %rax,-0x50(%rbp)
    4d24:	48 89 d8             	mov    %rbx,%rax
    4d27:	48 89 45 b8          	mov    %rax,-0x48(%rbp)
    4d2b:	48 89 f0             	mov    %rsi,%rax
    4d2e:	48 89 45 c0          	mov    %rax,-0x40(%rbp)
    4d32:	48 89 f8             	mov    %rdi,%rax
    4d35:	48 89 45 c8          	mov    %rax,-0x38(%rbp)
    4d39:	4c 89 e0             	mov    %r12,%rax
    4d3c:	48 89 45 d0          	mov    %rax,-0x30(%rbp)
    4d40:	4c 89 e8             	mov    %r13,%rax
    4d43:	48 89 45 d8          	mov    %rax,-0x28(%rbp)
    4d47:	4c 89 f0             	mov    %r14,%rax
    4d4a:	48 89 45 e0          	mov    %rax,-0x20(%rbp)
    4d4e:	4c 89 f8             	mov    %r15,%rax
    store_frame(ThreadExit);

    _DkThreadExit(0);
    4d51:	31 ff                	xor    %edi,%edi
    4d53:	48 89 45 e8          	mov    %rax,-0x18(%rbp)
    4d57:	e8 54 b9 00 00       	callq  106b0 <_DkThreadExit>

    notify_failure(PAL_ERROR_NOTKILLABLE);
}
    4d5c:	c9                   	leaveq 
{
    store_frame(ThreadExit);

    _DkThreadExit(0);

    notify_failure(PAL_ERROR_NOTKILLABLE);
    4d5d:	bf 11 00 00 00       	mov    $0x11,%edi
    4d62:	e9 e9 00 01 00       	jmpq   14e50 <notify_failure>
    4d67:	66 0f 1f 84 00 00 00 	nopw   0x0(%rax,%rax,1)
    4d6e:	00 00 

0000000000004d70 <DkThreadResume>:
}

/* PAL call DkThreadResume: resume the execution of a thread
   which is delayed before */
PAL_BOL DkThreadResume (PAL_HANDLE threadHandle)
{
    4d70:	55                   	push   %rbp
    4d71:	48 89 e5             	mov    %rsp,%rbp
    4d74:	48 83 ec 70          	sub    $0x70,%rsp

static inline
void __store_frame (struct pal_frame * frame,
                    void * func, const char * funcname)
{
    frame->self = frame;
    4d78:	48 8d 45 90          	lea    -0x70(%rbp),%rax
    frame->func = func;
    frame->funcname = funcname;
    frame->context = NULL;
    4d7c:	48 c7 45 f0 00 00 00 	movq   $0x0,-0x10(%rbp)
    4d83:	00 
    frame->retval = NULL;
    4d84:	48 c7 45 f8 00 00 00 	movq   $0x0,-0x8(%rbp)
    4d8b:	00 

static inline
void __store_frame (struct pal_frame * frame,
                    void * func, const char * funcname)
{
    frame->self = frame;
    4d8c:	48 89 45 90          	mov    %rax,-0x70(%rbp)
    frame->func = func;
    4d90:	48 8b 05 f9 ec 21 00 	mov    0x21ecf9(%rip),%rax        # 223a90 <_DYNAMIC+0x2a8>
    4d97:	48 89 45 98          	mov    %rax,-0x68(%rbp)
    frame->funcname = funcname;
    4d9b:	48 8d 05 f4 3a 01 00 	lea    0x13af4(%rip),%rax        # 18896 <handle_sizes.1924+0x116>
    4da2:	48 89 45 a0          	mov    %rax,-0x60(%rbp)
    frame->context = NULL;
    frame->retval = NULL;
    arch_store_frame(&frame->arch)
    4da6:	48 89 e0             	mov    %rsp,%rax
    4da9:	48 89 45 a8          	mov    %rax,-0x58(%rbp)
    4dad:	48 89 e8             	mov    %rbp,%rax
    4db0:	48 89 45 b0          	mov    %rax,-0x50(%rbp)
    4db4:	48 89 d8             	mov    %rbx,%rax
    4db7:	48 89 45 b8          	mov    %rax,-0x48(%rbp)
    4dbb:	48 89 f0             	mov    %rsi,%rax
    4dbe:	48 89 45 c0          	mov    %rax,-0x40(%rbp)
    4dc2:	48 89 f8             	mov    %rdi,%rax
    4dc5:	48 89 45 c8          	mov    %rax,-0x38(%rbp)
    4dc9:	4c 89 e0             	mov    %r12,%rax
    4dcc:	48 89 45 d0          	mov    %rax,-0x30(%rbp)
    4dd0:	4c 89 e8             	mov    %r13,%rax
    4dd3:	48 89 45 d8          	mov    %rax,-0x28(%rbp)
    4dd7:	4c 89 f0             	mov    %r14,%rax
    4dda:	48 89 45 e0          	mov    %rax,-0x20(%rbp)
    4dde:	4c 89 f8             	mov    %r15,%rax
    store_frame(ThreadResume);

    if (!threadHandle ||
    4de1:	48 85 ff             	test   %rdi,%rdi
    4de4:	48 89 45 e8          	mov    %rax,-0x18(%rbp)
    4de8:	74 05                	je     4def <DkThreadResume+0x7f>
    4dea:	83 3f 0e             	cmpl   $0xe,(%rdi)
    4ded:	74 11                	je     4e00 <DkThreadResume+0x90>
        !IS_HANDLE_TYPE(threadHandle, thread)) {
        notify_failure(PAL_ERROR_INVAL);
    4def:	bf 04 00 00 00       	mov    $0x4,%edi
    4df4:	e8 57 00 01 00       	callq  14e50 <notify_failure>
        return PAL_FALSE;
    4df9:	31 c0                	xor    %eax,%eax
        notify_failure(PAL_ERROR_DENIED);
        return PAL_FALSE;
    }

    return PAL_TRUE;
}
    4dfb:	c9                   	leaveq 
    4dfc:	c3                   	retq   
    4dfd:	0f 1f 00             	nopl   (%rax)
        !IS_HANDLE_TYPE(threadHandle, thread)) {
        notify_failure(PAL_ERROR_INVAL);
        return PAL_FALSE;
    }

    int ret = _DkThreadResume(threadHandle);
    4e00:	e8 6b b9 00 00       	callq  10770 <_DkThreadResume>
    4e05:	89 c2                	mov    %eax,%edx
    if (ret < 0) {
        notify_failure(PAL_ERROR_DENIED);
        return PAL_FALSE;
    }

    return PAL_TRUE;
    4e07:	b8 01 00 00 00       	mov    $0x1,%eax
        return PAL_FALSE;
    }

    int ret = _DkThreadResume(threadHandle);

    if (ret < 0) {
    4e0c:	85 d2                	test   %edx,%edx
    4e0e:	79 eb                	jns    4dfb <DkThreadResume+0x8b>
        notify_failure(PAL_ERROR_DENIED);
    4e10:	bf 06 00 00 00       	mov    $0x6,%edi
    4e15:	e8 36 00 01 00       	callq  14e50 <notify_failure>
        return PAL_FALSE;
    4e1a:	31 c0                	xor    %eax,%eax
    }

    return PAL_TRUE;
}
    4e1c:	c9                   	leaveq 
    4e1d:	c3                   	retq   
    4e1e:	66 90                	xchg   %ax,%ax

0000000000004e20 <DkThreadPrivate>:

    return handle;
}

PAL_BUF DkThreadPrivate (PAL_BUF addr)
{
    4e20:	55                   	push   %rbp
    4e21:	48 89 e5             	mov    %rsp,%rbp
    4e24:	48 83 ec 10          	sub    $0x10,%rsp
    void * ret = _DkThreadPrivate(addr);
    4e28:	e8 13 b7 00 00       	callq  10540 <_DkThreadPrivate>

    if (ret == NULL)
    4e2d:	48 85 c0             	test   %rax,%rax
    4e30:	74 02                	je     4e34 <DkThreadPrivate+0x14>
        notify_failure(PAL_ERROR_DENIED);

    return ret;
}
    4e32:	c9                   	leaveq 
    4e33:	c3                   	retq   
PAL_BUF DkThreadPrivate (PAL_BUF addr)
{
    void * ret = _DkThreadPrivate(addr);

    if (ret == NULL)
        notify_failure(PAL_ERROR_DENIED);
    4e34:	bf 06 00 00 00       	mov    $0x6,%edi
    4e39:	48 89 45 f8          	mov    %rax,-0x8(%rbp)
    4e3d:	e8 0e 00 01 00       	callq  14e50 <notify_failure>
    4e42:	48 8b 45 f8          	mov    -0x8(%rbp),%rax

    return ret;
}
    4e46:	c9                   	leaveq 
    4e47:	c3                   	retq   
    4e48:	0f 1f 84 00 00 00 00 	nopl   0x0(%rax,%rax,1)
    4e4f:	00 

0000000000004e50 <DkThreadYieldExecution>:
}

/* PAL call DkThreadYieldExecution. Yield the execution
   of the current thread. */
void DkThreadYieldExecution (void)
{
    4e50:	55                   	push   %rbp
    4e51:	48 89 e5             	mov    %rsp,%rbp
    _DkThreadYieldExecution();
}
    4e54:	5d                   	pop    %rbp

/* PAL call DkThreadYieldExecution. Yield the execution
   of the current thread. */
void DkThreadYieldExecution (void)
{
    _DkThreadYieldExecution();
    4e55:	e9 36 b8 00 00       	jmpq   10690 <_DkThreadYieldExecution>
    4e5a:	90                   	nop    
    4e5b:	90                   	nop    
    4e5c:	90                   	nop    
    4e5d:	90                   	nop    
    4e5e:	90                   	nop    
    4e5f:	90                   	nop    

0000000000004e60 <DkSemaphoreCreate>:
#include "pal_error.h"
#include "api.h"

PAL_HANDLE
DkSemaphoreCreate (PAL_NUM initialCount, PAL_NUM maxCount)
{
    4e60:	55                   	push   %rbp
    4e61:	48 89 e5             	mov    %rsp,%rbp
    4e64:	41 55                	push   %r13
    4e66:	41 54                	push   %r12

static inline
void __store_frame (struct pal_frame * frame,
                    void * func, const char * funcname)
{
    frame->self = frame;
    4e68:	48 8d 85 70 ff ff ff 	lea    -0x90(%rbp),%rax
    4e6f:	53                   	push   %rbx
    4e70:	49 89 fc             	mov    %rdi,%r12
    4e73:	49 89 f5             	mov    %rsi,%r13
    4e76:	48 83 ec 78          	sub    $0x78,%rsp
    4e7a:	48 89 85 70 ff ff ff 	mov    %rax,-0x90(%rbp)
    frame->func = func;
    4e81:	48 8b 05 d0 ec 21 00 	mov    0x21ecd0(%rip),%rax        # 223b58 <_DYNAMIC+0x370>
    frame->funcname = funcname;
    frame->context = NULL;
    4e88:	48 c7 45 d0 00 00 00 	movq   $0x0,-0x30(%rbp)
    4e8f:	00 
    frame->retval = NULL;
    4e90:	48 c7 45 d8 00 00 00 	movq   $0x0,-0x28(%rbp)
    4e97:	00 
static inline
void __store_frame (struct pal_frame * frame,
                    void * func, const char * funcname)
{
    frame->self = frame;
    frame->func = func;
    4e98:	48 89 85 78 ff ff ff 	mov    %rax,-0x88(%rbp)
    frame->funcname = funcname;
    4e9f:	48 8d 05 ff 39 01 00 	lea    0x139ff(%rip),%rax        # 188a5 <handle_sizes.1924+0x125>
    4ea6:	48 89 45 80          	mov    %rax,-0x80(%rbp)
    frame->context = NULL;
    frame->retval = NULL;
    arch_store_frame(&frame->arch)
    4eaa:	48 89 e0             	mov    %rsp,%rax
    4ead:	48 89 45 88          	mov    %rax,-0x78(%rbp)
    4eb1:	48 89 e8             	mov    %rbp,%rax
    4eb4:	48 89 45 90          	mov    %rax,-0x70(%rbp)
    4eb8:	48 89 d8             	mov    %rbx,%rax
    4ebb:	48 89 45 98          	mov    %rax,-0x68(%rbp)
    4ebf:	48 89 f0             	mov    %rsi,%rax
    4ec2:	48 89 45 a0          	mov    %rax,-0x60(%rbp)
    4ec6:	48 89 f8             	mov    %rdi,%rax
    4ec9:	48 89 45 a8          	mov    %rax,-0x58(%rbp)
    4ecd:	4c 89 e0             	mov    %r12,%rax
    4ed0:	48 89 45 b0          	mov    %rax,-0x50(%rbp)
    4ed4:	4c 89 e8             	mov    %r13,%rax
    4ed7:	48 89 45 b8          	mov    %rax,-0x48(%rbp)
    4edb:	4c 89 f0             	mov    %r14,%rax
    4ede:	48 89 45 c0          	mov    %rax,-0x40(%rbp)
    4ee2:	4c 89 f8             	mov    %r15,%rax
    store_frame(SemaphoreCreate);

    PAL_HANDLE handle = (PAL_HANDLE) malloc(HANDLE_SIZE(semaphore));
    4ee5:	bf 20 00 00 00       	mov    $0x20,%edi
    4eea:	48 89 45 c8          	mov    %rax,-0x38(%rbp)
    4eee:	e8 0d 3b 00 00       	callq  8a00 <malloc>

    int ret = _DkSemaphoreCreate(handle, initialCount, maxCount);
    4ef3:	44 89 ea             	mov    %r13d,%edx
    4ef6:	44 89 e6             	mov    %r12d,%esi
    4ef9:	48 89 c7             	mov    %rax,%rdi
PAL_HANDLE
DkSemaphoreCreate (PAL_NUM initialCount, PAL_NUM maxCount)
{
    store_frame(SemaphoreCreate);

    PAL_HANDLE handle = (PAL_HANDLE) malloc(HANDLE_SIZE(semaphore));
    4efc:	48 89 c3             	mov    %rax,%rbx

    int ret = _DkSemaphoreCreate(handle, initialCount, maxCount);
    4eff:	e8 bc b8 00 00       	callq  107c0 <_DkSemaphoreCreate>

    if (ret < 0) {
    4f04:	85 c0                	test   %eax,%eax
    4f06:	78 18                	js     4f20 <DkSemaphoreCreate+0xc0>
        notify_failure (-ret);
        return NULL;
    }

    return handle;
    4f08:	48 89 d8             	mov    %rbx,%rax
}
    4f0b:	48 83 c4 78          	add    $0x78,%rsp
    4f0f:	5b                   	pop    %rbx
    4f10:	41 5c                	pop    %r12
    4f12:	41 5d                	pop    %r13
    4f14:	5d                   	pop    %rbp
    4f15:	c3                   	retq   
    4f16:	66 2e 0f 1f 84 00 00 	nopw   %cs:0x0(%rax,%rax,1)
    4f1d:	00 00 00 
    PAL_HANDLE handle = (PAL_HANDLE) malloc(HANDLE_SIZE(semaphore));

    int ret = _DkSemaphoreCreate(handle, initialCount, maxCount);

    if (ret < 0) {
        notify_failure (-ret);
    4f20:	f7 d8                	neg    %eax
    4f22:	48 63 f8             	movslq %eax,%rdi
    4f25:	e8 26 ff 00 00       	callq  14e50 <notify_failure>
        return NULL;
    4f2a:	31 c0                	xor    %eax,%eax
    4f2c:	eb dd                	jmp    4f0b <DkSemaphoreCreate+0xab>
    4f2e:	66 90                	xchg   %ax,%ax

0000000000004f30 <DkSemaphoreDestroy>:
    return handle;
}

void
DkSemaphoreDestroy (PAL_HANDLE semaphoreHandle)
{
    4f30:	55                   	push   %rbp
    4f31:	48 89 e5             	mov    %rsp,%rbp

static inline
void __store_frame (struct pal_frame * frame,
                    void * func, const char * funcname)
{
    frame->self = frame;
    4f34:	48 8d 45 90          	lea    -0x70(%rbp),%rax
    4f38:	48 89 45 90          	mov    %rax,-0x70(%rbp)
    frame->func = func;
    4f3c:	48 8b 05 a5 ea 21 00 	mov    0x21eaa5(%rip),%rax        # 2239e8 <_DYNAMIC+0x200>
    frame->funcname = funcname;
    frame->context = NULL;
    4f43:	48 c7 45 f0 00 00 00 	movq   $0x0,-0x10(%rbp)
    4f4a:	00 
    frame->retval = NULL;
    4f4b:	48 c7 45 f8 00 00 00 	movq   $0x0,-0x8(%rbp)
    4f52:	00 
static inline
void __store_frame (struct pal_frame * frame,
                    void * func, const char * funcname)
{
    frame->self = frame;
    frame->func = func;
    4f53:	48 89 45 98          	mov    %rax,-0x68(%rbp)
    frame->funcname = funcname;
    4f57:	48 8d 05 59 39 01 00 	lea    0x13959(%rip),%rax        # 188b7 <handle_sizes.1924+0x137>
    4f5e:	48 89 45 a0          	mov    %rax,-0x60(%rbp)
    frame->context = NULL;
    frame->retval = NULL;
    arch_store_frame(&frame->arch)
    4f62:	48 89 e0             	mov    %rsp,%rax
    4f65:	48 89 45 a8          	mov    %rax,-0x58(%rbp)
    4f69:	48 89 e8             	mov    %rbp,%rax
    4f6c:	48 89 45 b0          	mov    %rax,-0x50(%rbp)
    4f70:	48 89 d8             	mov    %rbx,%rax
    4f73:	48 89 45 b8          	mov    %rax,-0x48(%rbp)
    4f77:	48 89 f0             	mov    %rsi,%rax
    4f7a:	48 89 45 c0          	mov    %rax,-0x40(%rbp)
    4f7e:	48 89 f8             	mov    %rdi,%rax
    4f81:	48 89 45 c8          	mov    %rax,-0x38(%rbp)
    4f85:	4c 89 e0             	mov    %r12,%rax
    4f88:	48 89 45 d0          	mov    %rax,-0x30(%rbp)
    4f8c:	4c 89 e8             	mov    %r13,%rax
    4f8f:	48 89 45 d8          	mov    %rax,-0x28(%rbp)
    4f93:	4c 89 f0             	mov    %r14,%rax
    4f96:	48 89 45 e0          	mov    %rax,-0x20(%rbp)
    4f9a:	4c 89 f8             	mov    %r15,%rax
    store_frame(SemaphoreDestroy);

    if (!semaphoreHandle) {
    4f9d:	48 85 ff             	test   %rdi,%rdi
    4fa0:	48 89 45 e8          	mov    %rax,-0x18(%rbp)
    4fa4:	74 0a                	je     4fb0 <DkSemaphoreDestroy+0x80>
        notify_failure(PAL_ERROR_INVAL);
        return;
    }

    _DkSemaphoreDestroy(semaphoreHandle);
}
    4fa6:	5d                   	pop    %rbp
    if (!semaphoreHandle) {
        notify_failure(PAL_ERROR_INVAL);
        return;
    }

    _DkSemaphoreDestroy(semaphoreHandle);
    4fa7:	e9 54 b8 00 00       	jmpq   10800 <_DkSemaphoreDestroy>
    4fac:	0f 1f 40 00          	nopl   0x0(%rax)
}
    4fb0:	5d                   	pop    %rbp
DkSemaphoreDestroy (PAL_HANDLE semaphoreHandle)
{
    store_frame(SemaphoreDestroy);

    if (!semaphoreHandle) {
        notify_failure(PAL_ERROR_INVAL);
    4fb1:	40 b7 04             	mov    $0x4,%dil
    4fb4:	e9 97 fe 00 00       	jmpq   14e50 <notify_failure>
    4fb9:	0f 1f 80 00 00 00 00 	nopl   0x0(%rax)

0000000000004fc0 <DkSemaphoreRelease>:

    _DkSemaphoreDestroy(semaphoreHandle);
}

void DkSemaphoreRelease (PAL_HANDLE handle, PAL_NUM count)
{
    4fc0:	55                   	push   %rbp
    4fc1:	48 89 e5             	mov    %rsp,%rbp

static inline
void __store_frame (struct pal_frame * frame,
                    void * func, const char * funcname)
{
    frame->self = frame;
    4fc4:	48 8d 45 90          	lea    -0x70(%rbp),%rax
    4fc8:	48 89 45 90          	mov    %rax,-0x70(%rbp)
    frame->func = func;
    4fcc:	48 8b 05 5d eb 21 00 	mov    0x21eb5d(%rip),%rax        # 223b30 <_DYNAMIC+0x348>
    frame->funcname = funcname;
    frame->context = NULL;
    4fd3:	48 c7 45 f0 00 00 00 	movq   $0x0,-0x10(%rbp)
    4fda:	00 
    frame->retval = NULL;
    4fdb:	48 c7 45 f8 00 00 00 	movq   $0x0,-0x8(%rbp)
    4fe2:	00 
static inline
void __store_frame (struct pal_frame * frame,
                    void * func, const char * funcname)
{
    frame->self = frame;
    frame->func = func;
    4fe3:	48 89 45 98          	mov    %rax,-0x68(%rbp)
    frame->funcname = funcname;
    4fe7:	48 8d 05 dc 38 01 00 	lea    0x138dc(%rip),%rax        # 188ca <handle_sizes.1924+0x14a>
    4fee:	48 89 45 a0          	mov    %rax,-0x60(%rbp)
    frame->context = NULL;
    frame->retval = NULL;
    arch_store_frame(&frame->arch)
    4ff2:	48 89 e0             	mov    %rsp,%rax
    4ff5:	48 89 45 a8          	mov    %rax,-0x58(%rbp)
    4ff9:	48 89 e8             	mov    %rbp,%rax
    4ffc:	48 89 45 b0          	mov    %rax,-0x50(%rbp)
    5000:	48 89 d8             	mov    %rbx,%rax
    5003:	48 89 45 b8          	mov    %rax,-0x48(%rbp)
    5007:	48 89 f0             	mov    %rsi,%rax
    500a:	48 89 45 c0          	mov    %rax,-0x40(%rbp)
    500e:	48 89 f8             	mov    %rdi,%rax
    5011:	48 89 45 c8          	mov    %rax,-0x38(%rbp)
    5015:	4c 89 e0             	mov    %r12,%rax
    5018:	48 89 45 d0          	mov    %rax,-0x30(%rbp)
    501c:	4c 89 e8             	mov    %r13,%rax
    501f:	48 89 45 d8          	mov    %rax,-0x28(%rbp)
    5023:	4c 89 f0             	mov    %r14,%rax
    5026:	48 89 45 e0          	mov    %rax,-0x20(%rbp)
    502a:	4c 89 f8             	mov    %r15,%rax
    store_frame(SemaphoreRelease);

    if (!handle ||
    502d:	48 85 ff             	test   %rdi,%rdi
    5030:	48 89 45 e8          	mov    %rax,-0x18(%rbp)
    5034:	74 05                	je     503b <DkSemaphoreRelease+0x7b>
    5036:	83 3f 0f             	cmpl   $0xf,(%rdi)
    5039:	74 05                	je     5040 <DkSemaphoreRelease+0x80>
        !IS_HANDLE_TYPE(handle, semaphore))
        return;

    _DkSemaphoreRelease (handle, count);
}
    503b:	5d                   	pop    %rbp
    503c:	c3                   	retq   
    503d:	0f 1f 00             	nopl   (%rax)
    5040:	5d                   	pop    %rbp

    if (!handle ||
        !IS_HANDLE_TYPE(handle, semaphore))
        return;

    _DkSemaphoreRelease (handle, count);
    5041:	e9 8a bb 00 00       	jmpq   10bd0 <_DkSemaphoreRelease>
    5046:	66 2e 0f 1f 84 00 00 	nopw   %cs:0x0(%rax,%rax,1)
    504d:	00 00 00 

0000000000005050 <sem_wait>:
}

static int sem_wait (PAL_HANDLE handle, int timeout)
{
    5050:	55                   	push   %rbp
    5051:	89 f2                	mov    %esi,%edx
    return _DkSemaphoreAcquireTimeout(handle, 1, timeout);
    5053:	be 01 00 00 00       	mov    $0x1,%esi

    _DkSemaphoreRelease (handle, count);
}

static int sem_wait (PAL_HANDLE handle, int timeout)
{
    5058:	48 89 e5             	mov    %rsp,%rbp
    return _DkSemaphoreAcquireTimeout(handle, 1, timeout);
}
    505b:	5d                   	pop    %rbp
    _DkSemaphoreRelease (handle, count);
}

static int sem_wait (PAL_HANDLE handle, int timeout)
{
    return _DkSemaphoreAcquireTimeout(handle, 1, timeout);
    505c:	e9 3f b9 00 00       	jmpq   109a0 <_DkSemaphoreAcquireTimeout>
    5061:	90                   	nop    
    5062:	90                   	nop    
    5063:	90                   	nop    
    5064:	90                   	nop    
    5065:	90                   	nop    
    5066:	90                   	nop    
    5067:	90                   	nop    
    5068:	90                   	nop    
    5069:	90                   	nop    
    506a:	90                   	nop    
    506b:	90                   	nop    
    506c:	90                   	nop    
    506d:	90                   	nop    
    506e:	90                   	nop    
    506f:	90                   	nop    

0000000000005070 <DkNotificationEventCreate>:
#include "pal_internal.h"
#include "pal_error.h"
#include "api.h"

PAL_HANDLE DkNotificationEventCreate (PAL_BOL initialState)
{
    5070:	55                   	push   %rbp
    5071:	48 89 e5             	mov    %rsp,%rbp
    5074:	48 83 c4 80          	add    $0xffffffffffffff80,%rsp

static inline
void __store_frame (struct pal_frame * frame,
                    void * func, const char * funcname)
{
    frame->self = frame;
    5078:	48 8d 45 90          	lea    -0x70(%rbp),%rax
    frame->func = func;
    frame->funcname = funcname;
    frame->context = NULL;
    507c:	48 c7 45 f0 00 00 00 	movq   $0x0,-0x10(%rbp)
    5083:	00 
    frame->retval = NULL;
    5084:	48 c7 45 f8 00 00 00 	movq   $0x0,-0x8(%rbp)
    508b:	00 

static inline
void __store_frame (struct pal_frame * frame,
                    void * func, const char * funcname)
{
    frame->self = frame;
    508c:	48 89 45 90          	mov    %rax,-0x70(%rbp)
    frame->func = func;
    5090:	48 8b 05 69 ea 21 00 	mov    0x21ea69(%rip),%rax        # 223b00 <_DYNAMIC+0x318>
    5097:	48 89 45 98          	mov    %rax,-0x68(%rbp)
    frame->funcname = funcname;
    509b:	48 8d 05 3b 38 01 00 	lea    0x1383b(%rip),%rax        # 188dd <handle_sizes.1924+0x15d>
    50a2:	48 89 45 a0          	mov    %rax,-0x60(%rbp)
    frame->context = NULL;
    frame->retval = NULL;
    arch_store_frame(&frame->arch)
    50a6:	48 89 e0             	mov    %rsp,%rax
    50a9:	48 89 45 a8          	mov    %rax,-0x58(%rbp)
    50ad:	48 89 e8             	mov    %rbp,%rax
    50b0:	48 89 45 b0          	mov    %rax,-0x50(%rbp)
    50b4:	48 89 d8             	mov    %rbx,%rax
    50b7:	48 89 45 b8          	mov    %rax,-0x48(%rbp)
    50bb:	48 89 f0             	mov    %rsi,%rax
    50be:	48 89 45 c0          	mov    %rax,-0x40(%rbp)
    50c2:	48 89 f8             	mov    %rdi,%rax
    50c5:	48 89 45 c8          	mov    %rax,-0x38(%rbp)
    50c9:	4c 89 e0             	mov    %r12,%rax
    50cc:	48 89 45 d0          	mov    %rax,-0x30(%rbp)
    50d0:	4c 89 e8             	mov    %r13,%rax
    50d3:	48 89 45 d8          	mov    %rax,-0x28(%rbp)
    50d7:	4c 89 f0             	mov    %r14,%rax
    50da:	48 89 45 e0          	mov    %rax,-0x20(%rbp)
    50de:	4c 89 f8             	mov    %r15,%rax
    store_frame(NotificationEventCreate);

    PAL_HANDLE handle = NULL;
    int ret = _DkEventCreate(&handle, initialState, true);
    50e1:	40 0f b6 f7          	movzbl %dil,%esi
    50e5:	48 8d 7d 88          	lea    -0x78(%rbp),%rdi
    50e9:	ba 01 00 00 00       	mov    $0x1,%edx
    50ee:	48 89 45 e8          	mov    %rax,-0x18(%rbp)

PAL_HANDLE DkNotificationEventCreate (PAL_BOL initialState)
{
    store_frame(NotificationEventCreate);

    PAL_HANDLE handle = NULL;
    50f2:	48 c7 45 88 00 00 00 	movq   $0x0,-0x78(%rbp)
    50f9:	00 
    int ret = _DkEventCreate(&handle, initialState, true);
    50fa:	e8 21 be 00 00       	callq  10f20 <_DkEventCreate>

    if (ret < 0) {
    50ff:	85 c0                	test   %eax,%eax
    5101:	78 0d                	js     5110 <DkNotificationEventCreate+0xa0>
        notify_failure(-ret);
        return NULL;
    }

    return handle;
    5103:	48 8b 45 88          	mov    -0x78(%rbp),%rax
}
    5107:	c9                   	leaveq 
    5108:	c3                   	retq   
    5109:	0f 1f 80 00 00 00 00 	nopl   0x0(%rax)

    PAL_HANDLE handle = NULL;
    int ret = _DkEventCreate(&handle, initialState, true);

    if (ret < 0) {
        notify_failure(-ret);
    5110:	f7 d8                	neg    %eax
    5112:	48 63 f8             	movslq %eax,%rdi
    5115:	e8 36 fd 00 00       	callq  14e50 <notify_failure>
        return NULL;
    511a:	31 c0                	xor    %eax,%eax
    }

    return handle;
}
    511c:	c9                   	leaveq 
    511d:	c3                   	retq   
    511e:	66 90                	xchg   %ax,%ax

0000000000005120 <DkSynchronizationEventCreate>:

PAL_HANDLE DkSynchronizationEventCreate (PAL_BOL initialState)
{
    5120:	55                   	push   %rbp
    5121:	48 89 e5             	mov    %rsp,%rbp
    5124:	48 83 c4 80          	add    $0xffffffffffffff80,%rsp

static inline
void __store_frame (struct pal_frame * frame,
                    void * func, const char * funcname)
{
    frame->self = frame;
    5128:	48 8d 45 90          	lea    -0x70(%rbp),%rax
    frame->func = func;
    frame->funcname = funcname;
    frame->context = NULL;
    512c:	48 c7 45 f0 00 00 00 	movq   $0x0,-0x10(%rbp)
    5133:	00 
    frame->retval = NULL;
    5134:	48 c7 45 f8 00 00 00 	movq   $0x0,-0x8(%rbp)
    513b:	00 

static inline
void __store_frame (struct pal_frame * frame,
                    void * func, const char * funcname)
{
    frame->self = frame;
    513c:	48 89 45 90          	mov    %rax,-0x70(%rbp)
    frame->func = func;
    5140:	48 8b 05 f9 e8 21 00 	mov    0x21e8f9(%rip),%rax        # 223a40 <_DYNAMIC+0x258>
    5147:	48 89 45 98          	mov    %rax,-0x68(%rbp)
    frame->funcname = funcname;
    514b:	48 8d 05 a5 37 01 00 	lea    0x137a5(%rip),%rax        # 188f7 <handle_sizes.1924+0x177>
    5152:	48 89 45 a0          	mov    %rax,-0x60(%rbp)
    frame->context = NULL;
    frame->retval = NULL;
    arch_store_frame(&frame->arch)
    5156:	48 89 e0             	mov    %rsp,%rax
    5159:	48 89 45 a8          	mov    %rax,-0x58(%rbp)
    515d:	48 89 e8             	mov    %rbp,%rax
    5160:	48 89 45 b0          	mov    %rax,-0x50(%rbp)
    5164:	48 89 d8             	mov    %rbx,%rax
    5167:	48 89 45 b8          	mov    %rax,-0x48(%rbp)
    516b:	48 89 f0             	mov    %rsi,%rax
    516e:	48 89 45 c0          	mov    %rax,-0x40(%rbp)
    5172:	48 89 f8             	mov    %rdi,%rax
    5175:	48 89 45 c8          	mov    %rax,-0x38(%rbp)
    5179:	4c 89 e0             	mov    %r12,%rax
    517c:	48 89 45 d0          	mov    %rax,-0x30(%rbp)
    5180:	4c 89 e8             	mov    %r13,%rax
    5183:	48 89 45 d8          	mov    %rax,-0x28(%rbp)
    5187:	4c 89 f0             	mov    %r14,%rax
    518a:	48 89 45 e0          	mov    %rax,-0x20(%rbp)
    518e:	4c 89 f8             	mov    %r15,%rax
    store_frame(SynchronizationEventCreate);

    PAL_HANDLE handle = NULL;
    int ret = _DkEventCreate(&handle, initialState, false);
    5191:	40 0f b6 f7          	movzbl %dil,%esi
    5195:	48 8d 7d 88          	lea    -0x78(%rbp),%rdi
    5199:	31 d2                	xor    %edx,%edx
    519b:	48 89 45 e8          	mov    %rax,-0x18(%rbp)

PAL_HANDLE DkSynchronizationEventCreate (PAL_BOL initialState)
{
    store_frame(SynchronizationEventCreate);

    PAL_HANDLE handle = NULL;
    519f:	48 c7 45 88 00 00 00 	movq   $0x0,-0x78(%rbp)
    51a6:	00 
    int ret = _DkEventCreate(&handle, initialState, false);
    51a7:	e8 74 bd 00 00       	callq  10f20 <_DkEventCreate>

    if (ret < 0) {
    51ac:	85 c0                	test   %eax,%eax
    51ae:	78 10                	js     51c0 <DkSynchronizationEventCreate+0xa0>
        notify_failure(-ret);
        return NULL;
    }

    return handle;
    51b0:	48 8b 45 88          	mov    -0x78(%rbp),%rax
}
    51b4:	c9                   	leaveq 
    51b5:	c3                   	retq   
    51b6:	66 2e 0f 1f 84 00 00 	nopw   %cs:0x0(%rax,%rax,1)
    51bd:	00 00 00 

    PAL_HANDLE handle = NULL;
    int ret = _DkEventCreate(&handle, initialState, false);

    if (ret < 0) {
        notify_failure(-ret);
    51c0:	f7 d8                	neg    %eax
    51c2:	48 63 f8             	movslq %eax,%rdi
    51c5:	e8 86 fc 00 00       	callq  14e50 <notify_failure>
        return NULL;
    51ca:	31 c0                	xor    %eax,%eax
    }

    return handle;
}
    51cc:	c9                   	leaveq 
    51cd:	c3                   	retq   
    51ce:	66 90                	xchg   %ax,%ax

00000000000051d0 <DkEventDestroy>:

void DkEventDestroy (PAL_HANDLE handle)
{
    51d0:	55                   	push   %rbp
    51d1:	48 89 e5             	mov    %rsp,%rbp

static inline
void __store_frame (struct pal_frame * frame,
                    void * func, const char * funcname)
{
    frame->self = frame;
    51d4:	48 8d 45 90          	lea    -0x70(%rbp),%rax
    51d8:	48 89 45 90          	mov    %rax,-0x70(%rbp)
    frame->func = func;
    51dc:	48 8b 05 ed e8 21 00 	mov    0x21e8ed(%rip),%rax        # 223ad0 <_DYNAMIC+0x2e8>
    frame->funcname = funcname;
    frame->context = NULL;
    51e3:	48 c7 45 f0 00 00 00 	movq   $0x0,-0x10(%rbp)
    51ea:	00 
    frame->retval = NULL;
    51eb:	48 c7 45 f8 00 00 00 	movq   $0x0,-0x8(%rbp)
    51f2:	00 
static inline
void __store_frame (struct pal_frame * frame,
                    void * func, const char * funcname)
{
    frame->self = frame;
    frame->func = func;
    51f3:	48 89 45 98          	mov    %rax,-0x68(%rbp)
    frame->funcname = funcname;
    51f7:	48 8d 05 16 37 01 00 	lea    0x13716(%rip),%rax        # 18914 <handle_sizes.1924+0x194>
    51fe:	48 89 45 a0          	mov    %rax,-0x60(%rbp)
    frame->context = NULL;
    frame->retval = NULL;
    arch_store_frame(&frame->arch)
    5202:	48 89 e0             	mov    %rsp,%rax
    5205:	48 89 45 a8          	mov    %rax,-0x58(%rbp)
    5209:	48 89 e8             	mov    %rbp,%rax
    520c:	48 89 45 b0          	mov    %rax,-0x50(%rbp)
    5210:	48 89 d8             	mov    %rbx,%rax
    5213:	48 89 45 b8          	mov    %rax,-0x48(%rbp)
    5217:	48 89 f0             	mov    %rsi,%rax
    521a:	48 89 45 c0          	mov    %rax,-0x40(%rbp)
    521e:	48 89 f8             	mov    %rdi,%rax
    5221:	48 89 45 c8          	mov    %rax,-0x38(%rbp)
    5225:	4c 89 e0             	mov    %r12,%rax
    5228:	48 89 45 d0          	mov    %rax,-0x30(%rbp)
    522c:	4c 89 e8             	mov    %r13,%rax
    522f:	48 89 45 d8          	mov    %rax,-0x28(%rbp)
    5233:	4c 89 f0             	mov    %r14,%rax
    5236:	48 89 45 e0          	mov    %rax,-0x20(%rbp)
    523a:	4c 89 f8             	mov    %r15,%rax
    store_frame(EventDestroy);

    if (!handle || !IS_HANDLE_TYPE(handle, event)) {
    523d:	48 85 ff             	test   %rdi,%rdi
    5240:	48 89 45 e8          	mov    %rax,-0x18(%rbp)
    5244:	74 05                	je     524b <DkEventDestroy+0x7b>
    5246:	83 3f 10             	cmpl   $0x10,(%rdi)
    5249:	74 15                	je     5260 <DkEventDestroy+0x90>
        notify_failure(PAL_ERROR_INVAL);
        return;
    }

    _DkEventDestroy(handle);
}
    524b:	5d                   	pop    %rbp
void DkEventDestroy (PAL_HANDLE handle)
{
    store_frame(EventDestroy);

    if (!handle || !IS_HANDLE_TYPE(handle, event)) {
        notify_failure(PAL_ERROR_INVAL);
    524c:	bf 04 00 00 00       	mov    $0x4,%edi
    5251:	e9 fa fb 00 00       	jmpq   14e50 <notify_failure>
    5256:	66 2e 0f 1f 84 00 00 	nopw   %cs:0x0(%rax,%rax,1)
    525d:	00 00 00 
        return;
    }

    _DkEventDestroy(handle);
}
    5260:	5d                   	pop    %rbp
    if (!handle || !IS_HANDLE_TYPE(handle, event)) {
        notify_failure(PAL_ERROR_INVAL);
        return;
    }

    _DkEventDestroy(handle);
    5261:	e9 1a bd 00 00       	jmpq   10f80 <_DkEventDestroy>
    5266:	66 2e 0f 1f 84 00 00 	nopw   %cs:0x0(%rax,%rax,1)
    526d:	00 00 00 

0000000000005270 <event_close>:
    if (ret < 0)
        notify_failure(-ret);
}

static int event_close (PAL_HANDLE handle)
{
    5270:	55                   	push   %rbp
    5271:	48 89 e5             	mov    %rsp,%rbp
    return _DkEventClear(handle);
}
    5274:	5d                   	pop    %rbp
        notify_failure(-ret);
}

static int event_close (PAL_HANDLE handle)
{
    return _DkEventClear(handle);
    5275:	e9 46 bd 00 00       	jmpq   10fc0 <_DkEventClear>
    527a:	66 0f 1f 44 00 00    	nopw   0x0(%rax,%rax,1)

0000000000005280 <event_wait>:
}

static int event_wait (PAL_HANDLE handle, int timeout)
{
    5280:	55                   	push   %rbp
    return timeout >=0 ? _DkEventWaitTimeout(handle, timeout) :
    5281:	85 f6                	test   %esi,%esi
{
    return _DkEventClear(handle);
}

static int event_wait (PAL_HANDLE handle, int timeout)
{
    5283:	48 89 e5             	mov    %rsp,%rbp
    return timeout >=0 ? _DkEventWaitTimeout(handle, timeout) :
    5286:	78 08                	js     5290 <event_wait+0x10>
           _DkEventWait(handle);
}
    5288:	5d                   	pop    %rbp
    return _DkEventClear(handle);
}

static int event_wait (PAL_HANDLE handle, int timeout)
{
    return timeout >=0 ? _DkEventWaitTimeout(handle, timeout) :
    5289:	e9 12 bd 00 00       	jmpq   10fa0 <_DkEventWaitTimeout>
    528e:	66 90                	xchg   %ax,%ax
           _DkEventWait(handle);
}
    5290:	5d                   	pop    %rbp
    return _DkEventClear(handle);
}

static int event_wait (PAL_HANDLE handle, int timeout)
{
    return timeout >=0 ? _DkEventWaitTimeout(handle, timeout) :
    5291:	e9 1a bd 00 00       	jmpq   10fb0 <_DkEventWait>
    5296:	66 2e 0f 1f 84 00 00 	nopw   %cs:0x0(%rax,%rax,1)
    529d:	00 00 00 

00000000000052a0 <DkEventSet>:

    _DkEventDestroy(handle);
}

void DkEventSet (PAL_HANDLE handle)
{
    52a0:	55                   	push   %rbp
    52a1:	48 89 e5             	mov    %rsp,%rbp
    52a4:	48 83 ec 70          	sub    $0x70,%rsp

static inline
void __store_frame (struct pal_frame * frame,
                    void * func, const char * funcname)
{
    frame->self = frame;
    52a8:	48 8d 45 90          	lea    -0x70(%rbp),%rax
    frame->func = func;
    frame->funcname = funcname;
    frame->context = NULL;
    52ac:	48 c7 45 f0 00 00 00 	movq   $0x0,-0x10(%rbp)
    52b3:	00 
    frame->retval = NULL;
    52b4:	48 c7 45 f8 00 00 00 	movq   $0x0,-0x8(%rbp)
    52bb:	00 

static inline
void __store_frame (struct pal_frame * frame,
                    void * func, const char * funcname)
{
    frame->self = frame;
    52bc:	48 89 45 90          	mov    %rax,-0x70(%rbp)
    frame->func = func;
    52c0:	48 8b 05 61 e7 21 00 	mov    0x21e761(%rip),%rax        # 223a28 <_DYNAMIC+0x240>
    52c7:	48 89 45 98          	mov    %rax,-0x68(%rbp)
    frame->funcname = funcname;
    52cb:	48 8d 05 51 36 01 00 	lea    0x13651(%rip),%rax        # 18923 <handle_sizes.1924+0x1a3>
    52d2:	48 89 45 a0          	mov    %rax,-0x60(%rbp)
    frame->context = NULL;
    frame->retval = NULL;
    arch_store_frame(&frame->arch)
    52d6:	48 89 e0             	mov    %rsp,%rax
    52d9:	48 89 45 a8          	mov    %rax,-0x58(%rbp)
    52dd:	48 89 e8             	mov    %rbp,%rax
    52e0:	48 89 45 b0          	mov    %rax,-0x50(%rbp)
    52e4:	48 89 d8             	mov    %rbx,%rax
    52e7:	48 89 45 b8          	mov    %rax,-0x48(%rbp)
    52eb:	48 89 f0             	mov    %rsi,%rax
    52ee:	48 89 45 c0          	mov    %rax,-0x40(%rbp)
    52f2:	48 89 f8             	mov    %rdi,%rax
    52f5:	48 89 45 c8          	mov    %rax,-0x38(%rbp)
    52f9:	4c 89 e0             	mov    %r12,%rax
    52fc:	48 89 45 d0          	mov    %rax,-0x30(%rbp)
    5300:	4c 89 e8             	mov    %r13,%rax
    5303:	48 89 45 d8          	mov    %rax,-0x28(%rbp)
    5307:	4c 89 f0             	mov    %r14,%rax
    530a:	48 89 45 e0          	mov    %rax,-0x20(%rbp)
    530e:	4c 89 f8             	mov    %r15,%rax
    store_frame(EventSet);

    if (!handle || !IS_HANDLE_TYPE(handle, event)) {
    5311:	48 85 ff             	test   %rdi,%rdi
    5314:	48 89 45 e8          	mov    %rax,-0x18(%rbp)
    5318:	74 05                	je     531f <DkEventSet+0x7f>
    531a:	83 3f 10             	cmpl   $0x10,(%rdi)
    531d:	74 11                	je     5330 <DkEventSet+0x90>

    int ret = _DkEventSet (handle);

    if (ret < 0)
        notify_failure(-ret);
}
    531f:	c9                   	leaveq 
void DkEventSet (PAL_HANDLE handle)
{
    store_frame(EventSet);

    if (!handle || !IS_HANDLE_TYPE(handle, event)) {
        notify_failure(PAL_ERROR_INVAL);
    5320:	bf 04 00 00 00       	mov    $0x4,%edi
    5325:	e9 26 fb 00 00       	jmpq   14e50 <notify_failure>
    532a:	66 0f 1f 44 00 00    	nopw   0x0(%rax,%rax,1)
        return;
    }

    int ret = _DkEventSet (handle);
    5330:	e8 5b bc 00 00       	callq  10f90 <_DkEventSet>

    if (ret < 0)
    5335:	85 c0                	test   %eax,%eax
    5337:	78 07                	js     5340 <DkEventSet+0xa0>
        notify_failure(-ret);
}
    5339:	c9                   	leaveq 
    533a:	c3                   	retq   
    533b:	0f 1f 44 00 00       	nopl   0x0(%rax,%rax,1)
    5340:	c9                   	leaveq 
    }

    int ret = _DkEventSet (handle);

    if (ret < 0)
        notify_failure(-ret);
    5341:	f7 d8                	neg    %eax
    5343:	48 63 f8             	movslq %eax,%rdi
    5346:	e9 05 fb 00 00       	jmpq   14e50 <notify_failure>
    534b:	0f 1f 44 00 00       	nopl   0x0(%rax,%rax,1)

0000000000005350 <DkEventWait>:
}

void DkEventWait (PAL_HANDLE handle)
{
    5350:	55                   	push   %rbp
    5351:	48 89 e5             	mov    %rsp,%rbp
    5354:	48 83 ec 70          	sub    $0x70,%rsp

static inline
void __store_frame (struct pal_frame * frame,
                    void * func, const char * funcname)
{
    frame->self = frame;
    5358:	48 8d 45 90          	lea    -0x70(%rbp),%rax
    frame->func = func;
    frame->funcname = funcname;
    frame->context = NULL;
    535c:	48 c7 45 f0 00 00 00 	movq   $0x0,-0x10(%rbp)
    5363:	00 
    frame->retval = NULL;
    5364:	48 c7 45 f8 00 00 00 	movq   $0x0,-0x8(%rbp)
    536b:	00 

static inline
void __store_frame (struct pal_frame * frame,
                    void * func, const char * funcname)
{
    frame->self = frame;
    536c:	48 89 45 90          	mov    %rax,-0x70(%rbp)
    frame->func = func;
    5370:	48 8b 05 91 e6 21 00 	mov    0x21e691(%rip),%rax        # 223a08 <_DYNAMIC+0x220>
    5377:	48 89 45 98          	mov    %rax,-0x68(%rbp)
    frame->funcname = funcname;
    537b:	48 8d 05 ac 35 01 00 	lea    0x135ac(%rip),%rax        # 1892e <handle_sizes.1924+0x1ae>
    5382:	48 89 45 a0          	mov    %rax,-0x60(%rbp)
    frame->context = NULL;
    frame->retval = NULL;
    arch_store_frame(&frame->arch)
    5386:	48 89 e0             	mov    %rsp,%rax
    5389:	48 89 45 a8          	mov    %rax,-0x58(%rbp)
    538d:	48 89 e8             	mov    %rbp,%rax
    5390:	48 89 45 b0          	mov    %rax,-0x50(%rbp)
    5394:	48 89 d8             	mov    %rbx,%rax
    5397:	48 89 45 b8          	mov    %rax,-0x48(%rbp)
    539b:	48 89 f0             	mov    %rsi,%rax
    539e:	48 89 45 c0          	mov    %rax,-0x40(%rbp)
    53a2:	48 89 f8             	mov    %rdi,%rax
    53a5:	48 89 45 c8          	mov    %rax,-0x38(%rbp)
    53a9:	4c 89 e0             	mov    %r12,%rax
    53ac:	48 89 45 d0          	mov    %rax,-0x30(%rbp)
    53b0:	4c 89 e8             	mov    %r13,%rax
    53b3:	48 89 45 d8          	mov    %rax,-0x28(%rbp)
    53b7:	4c 89 f0             	mov    %r14,%rax
    53ba:	48 89 45 e0          	mov    %rax,-0x20(%rbp)
    53be:	4c 89 f8             	mov    %r15,%rax
    store_frame(EventWait);

    if (!handle || !IS_HANDLE_TYPE(handle, event)) {
    53c1:	48 85 ff             	test   %rdi,%rdi
    53c4:	48 89 45 e8          	mov    %rax,-0x18(%rbp)
    53c8:	74 05                	je     53cf <DkEventWait+0x7f>
    53ca:	83 3f 10             	cmpl   $0x10,(%rdi)
    53cd:	74 11                	je     53e0 <DkEventWait+0x90>

    int ret = _DkEventWait(handle);

    if (ret < 0)
        notify_failure(-ret);
}
    53cf:	c9                   	leaveq 
void DkEventWait (PAL_HANDLE handle)
{
    store_frame(EventWait);

    if (!handle || !IS_HANDLE_TYPE(handle, event)) {
        notify_failure(PAL_ERROR_INVAL);
    53d0:	bf 04 00 00 00       	mov    $0x4,%edi
    53d5:	e9 76 fa 00 00       	jmpq   14e50 <notify_failure>
    53da:	66 0f 1f 44 00 00    	nopw   0x0(%rax,%rax,1)
        return;
    }

    int ret = _DkEventWait(handle);
    53e0:	e8 cb bb 00 00       	callq  10fb0 <_DkEventWait>

    if (ret < 0)
    53e5:	85 c0                	test   %eax,%eax
    53e7:	78 07                	js     53f0 <DkEventWait+0xa0>
        notify_failure(-ret);
}
    53e9:	c9                   	leaveq 
    53ea:	c3                   	retq   
    53eb:	0f 1f 44 00 00       	nopl   0x0(%rax,%rax,1)
    53f0:	c9                   	leaveq 
    }

    int ret = _DkEventWait(handle);

    if (ret < 0)
        notify_failure(-ret);
    53f1:	f7 d8                	neg    %eax
    53f3:	48 63 f8             	movslq %eax,%rdi
    53f6:	e9 55 fa 00 00       	jmpq   14e50 <notify_failure>
    53fb:	0f 1f 44 00 00       	nopl   0x0(%rax,%rax,1)

0000000000005400 <DkEventClear>:
}

void DkEventClear (PAL_HANDLE handle)
{
    5400:	55                   	push   %rbp
    5401:	48 89 e5             	mov    %rsp,%rbp
    5404:	48 83 ec 70          	sub    $0x70,%rsp

static inline
void __store_frame (struct pal_frame * frame,
                    void * func, const char * funcname)
{
    frame->self = frame;
    5408:	48 8d 45 90          	lea    -0x70(%rbp),%rax
    frame->func = func;
    frame->funcname = funcname;
    frame->context = NULL;
    540c:	48 c7 45 f0 00 00 00 	movq   $0x0,-0x10(%rbp)
    5413:	00 
    frame->retval = NULL;
    5414:	48 c7 45 f8 00 00 00 	movq   $0x0,-0x8(%rbp)
    541b:	00 

static inline
void __store_frame (struct pal_frame * frame,
                    void * func, const char * funcname)
{
    frame->self = frame;
    541c:	48 89 45 90          	mov    %rax,-0x70(%rbp)
    frame->func = func;
    5420:	48 8b 05 89 e6 21 00 	mov    0x21e689(%rip),%rax        # 223ab0 <_DYNAMIC+0x2c8>
    5427:	48 89 45 98          	mov    %rax,-0x68(%rbp)
    frame->funcname = funcname;
    542b:	48 8d 05 08 35 01 00 	lea    0x13508(%rip),%rax        # 1893a <handle_sizes.1924+0x1ba>
    5432:	48 89 45 a0          	mov    %rax,-0x60(%rbp)
    frame->context = NULL;
    frame->retval = NULL;
    arch_store_frame(&frame->arch)
    5436:	48 89 e0             	mov    %rsp,%rax
    5439:	48 89 45 a8          	mov    %rax,-0x58(%rbp)
    543d:	48 89 e8             	mov    %rbp,%rax
    5440:	48 89 45 b0          	mov    %rax,-0x50(%rbp)
    5444:	48 89 d8             	mov    %rbx,%rax
    5447:	48 89 45 b8          	mov    %rax,-0x48(%rbp)
    544b:	48 89 f0             	mov    %rsi,%rax
    544e:	48 89 45 c0          	mov    %rax,-0x40(%rbp)
    5452:	48 89 f8             	mov    %rdi,%rax
    5455:	48 89 45 c8          	mov    %rax,-0x38(%rbp)
    5459:	4c 89 e0             	mov    %r12,%rax
    545c:	48 89 45 d0          	mov    %rax,-0x30(%rbp)
    5460:	4c 89 e8             	mov    %r13,%rax
    5463:	48 89 45 d8          	mov    %rax,-0x28(%rbp)
    5467:	4c 89 f0             	mov    %r14,%rax
    546a:	48 89 45 e0          	mov    %rax,-0x20(%rbp)
    546e:	4c 89 f8             	mov    %r15,%rax
    store_frame(EventClear);

    if (!handle || !IS_HANDLE_TYPE(handle, event)) {
    5471:	48 85 ff             	test   %rdi,%rdi
    5474:	48 89 45 e8          	mov    %rax,-0x18(%rbp)
    5478:	74 05                	je     547f <DkEventClear+0x7f>
    547a:	83 3f 10             	cmpl   $0x10,(%rdi)
    547d:	74 11                	je     5490 <DkEventClear+0x90>

    int ret = _DkEventClear(handle);

    if (ret < 0)
        notify_failure(-ret);
}
    547f:	c9                   	leaveq 
void DkEventClear (PAL_HANDLE handle)
{
    store_frame(EventClear);

    if (!handle || !IS_HANDLE_TYPE(handle, event)) {
        notify_failure(PAL_ERROR_INVAL);
    5480:	bf 04 00 00 00       	mov    $0x4,%edi
    5485:	e9 c6 f9 00 00       	jmpq   14e50 <notify_failure>
    548a:	66 0f 1f 44 00 00    	nopw   0x0(%rax,%rax,1)
        return;
    }

    int ret = _DkEventClear(handle);
    5490:	e8 2b bb 00 00       	callq  10fc0 <_DkEventClear>

    if (ret < 0)
    5495:	85 c0                	test   %eax,%eax
    5497:	78 07                	js     54a0 <DkEventClear+0xa0>
        notify_failure(-ret);
}
    5499:	c9                   	leaveq 
    549a:	c3                   	retq   
    549b:	0f 1f 44 00 00       	nopl   0x0(%rax,%rax,1)
    54a0:	c9                   	leaveq 
    }

    int ret = _DkEventClear(handle);

    if (ret < 0)
        notify_failure(-ret);
    54a1:	f7 d8                	neg    %eax
    54a3:	48 63 f8             	movslq %eax,%rdi
    54a6:	e9 a5 f9 00 00       	jmpq   14e50 <notify_failure>
    54ab:	90                   	nop    
    54ac:	90                   	nop    
    54ad:	90                   	nop    
    54ae:	90                   	nop    
    54af:	90                   	nop    

00000000000054b0 <DkProcessCreate>:
#include "pal_debug.h"
#include "pal_error.h"
#include "api.h"
PAL_HANDLE
DkProcessCreate (PAL_STR uri, PAL_FLG flags, PAL_STR * args)
{
    54b0:	55                   	push   %rbp
    54b1:	48 89 f8             	mov    %rdi,%rax
void __store_frame (struct pal_frame * frame,
                    void * func, const char * funcname)
{
    frame->self = frame;
    frame->func = func;
    frame->funcname = funcname;
    54b4:	48 8d 3d 8c 34 01 00 	lea    0x1348c(%rip),%rdi        # 18947 <handle_sizes.1924+0x1c7>
    54bb:	48 89 e5             	mov    %rsp,%rbp
    54be:	48 83 c4 80          	add    $0xffffffffffffff80,%rsp

static inline
void __store_frame (struct pal_frame * frame,
                    void * func, const char * funcname)
{
    frame->self = frame;
    54c2:	48 8d 4d 90          	lea    -0x70(%rbp),%rcx
    frame->func = func;
    frame->funcname = funcname;
    54c6:	48 89 7d a0          	mov    %rdi,-0x60(%rbp)
    frame->context = NULL;
    54ca:	48 c7 45 f0 00 00 00 	movq   $0x0,-0x10(%rbp)
    54d1:	00 
    frame->retval = NULL;
    54d2:	48 c7 45 f8 00 00 00 	movq   $0x0,-0x8(%rbp)
    54d9:	00 

static inline
void __store_frame (struct pal_frame * frame,
                    void * func, const char * funcname)
{
    frame->self = frame;
    54da:	48 89 4d 90          	mov    %rcx,-0x70(%rbp)
    frame->func = func;
    54de:	48 8b 0d cb e4 21 00 	mov    0x21e4cb(%rip),%rcx        # 2239b0 <_DYNAMIC+0x1c8>
    54e5:	48 89 4d 98          	mov    %rcx,-0x68(%rbp)
    frame->funcname = funcname;
    frame->context = NULL;
    frame->retval = NULL;
    arch_store_frame(&frame->arch)
    54e9:	48 89 e1             	mov    %rsp,%rcx
    54ec:	48 89 4d a8          	mov    %rcx,-0x58(%rbp)
    54f0:	48 89 e9             	mov    %rbp,%rcx
    54f3:	48 89 4d b0          	mov    %rcx,-0x50(%rbp)
    54f7:	48 89 d9             	mov    %rbx,%rcx
    54fa:	48 89 4d b8          	mov    %rcx,-0x48(%rbp)
    54fe:	48 89 f1             	mov    %rsi,%rcx
    5501:	48 89 4d c0          	mov    %rcx,-0x40(%rbp)
    5505:	48 89 f9             	mov    %rdi,%rcx
    5508:	48 89 4d c8          	mov    %rcx,-0x38(%rbp)
    550c:	4c 89 e1             	mov    %r12,%rcx
    550f:	48 89 4d d0          	mov    %rcx,-0x30(%rbp)
    5513:	4c 89 e9             	mov    %r13,%rcx
    5516:	48 89 4d d8          	mov    %rcx,-0x28(%rbp)
    551a:	4c 89 f1             	mov    %r14,%rcx
    551d:	48 89 4d e0          	mov    %rcx,-0x20(%rbp)
    5521:	4c 89 f9             	mov    %r15,%rcx
    store_frame(ProcessCreate);

    PAL_HANDLE handle = NULL;
    int ret = _DkProcessCreate(&handle, uri, flags, args);
    5524:	48 8d 7d 88          	lea    -0x78(%rbp),%rdi
    5528:	48 89 4d e8          	mov    %rcx,-0x18(%rbp)
    552c:	48 89 d1             	mov    %rdx,%rcx
    552f:	89 f2                	mov    %esi,%edx
    5531:	48 89 c6             	mov    %rax,%rsi
PAL_HANDLE
DkProcessCreate (PAL_STR uri, PAL_FLG flags, PAL_STR * args)
{
    store_frame(ProcessCreate);

    PAL_HANDLE handle = NULL;
    5534:	48 c7 45 88 00 00 00 	movq   $0x0,-0x78(%rbp)
    553b:	00 
    int ret = _DkProcessCreate(&handle, uri, flags, args);
    553c:	e8 bf c5 00 00       	callq  11b00 <_DkProcessCreate>
    if (ret < 0) {
    5541:	85 c0                	test   %eax,%eax
    5543:	78 0b                	js     5550 <DkProcessCreate+0xa0>
        notify_failure(-ret);
        return NULL;
    }

    return handle;
    5545:	48 8b 45 88          	mov    -0x78(%rbp),%rax
}
    5549:	c9                   	leaveq 
    554a:	c3                   	retq   
    554b:	0f 1f 44 00 00       	nopl   0x0(%rax,%rax,1)
    store_frame(ProcessCreate);

    PAL_HANDLE handle = NULL;
    int ret = _DkProcessCreate(&handle, uri, flags, args);
    if (ret < 0) {
        notify_failure(-ret);
    5550:	f7 d8                	neg    %eax
    5552:	48 63 f8             	movslq %eax,%rdi
    5555:	e8 f6 f8 00 00       	callq  14e50 <notify_failure>
        return NULL;
    555a:	31 c0                	xor    %eax,%eax
    }

    return handle;
}
    555c:	c9                   	leaveq 
    555d:	c3                   	retq   
    555e:	66 90                	xchg   %ax,%ax

0000000000005560 <DkProcessExit>:

void DkProcessExit (PAL_NUM exitcode)
{
    5560:	55                   	push   %rbp
    5561:	48 89 e5             	mov    %rsp,%rbp
    5564:	48 83 ec 70          	sub    $0x70,%rsp

static inline
void __store_frame (struct pal_frame * frame,
                    void * func, const char * funcname)
{
    frame->self = frame;
    5568:	48 8d 45 90          	lea    -0x70(%rbp),%rax
    frame->func = func;
    frame->funcname = funcname;
    frame->context = NULL;
    556c:	48 c7 45 f0 00 00 00 	movq   $0x0,-0x10(%rbp)
    5573:	00 
    frame->retval = NULL;
    5574:	48 c7 45 f8 00 00 00 	movq   $0x0,-0x8(%rbp)
    557b:	00 

static inline
void __store_frame (struct pal_frame * frame,
                    void * func, const char * funcname)
{
    frame->self = frame;
    557c:	48 89 45 90          	mov    %rax,-0x70(%rbp)
    frame->func = func;
    5580:	48 8b 05 01 e4 21 00 	mov    0x21e401(%rip),%rax        # 223988 <_DYNAMIC+0x1a0>
    5587:	48 89 45 98          	mov    %rax,-0x68(%rbp)
    frame->funcname = funcname;
    558b:	48 8d 05 c5 33 01 00 	lea    0x133c5(%rip),%rax        # 18957 <handle_sizes.1924+0x1d7>
    5592:	48 89 45 a0          	mov    %rax,-0x60(%rbp)
    frame->context = NULL;
    frame->retval = NULL;
    arch_store_frame(&frame->arch)
    5596:	48 89 e0             	mov    %rsp,%rax
    5599:	48 89 45 a8          	mov    %rax,-0x58(%rbp)
    559d:	48 89 e8             	mov    %rbp,%rax
    55a0:	48 89 45 b0          	mov    %rax,-0x50(%rbp)
    55a4:	48 89 d8             	mov    %rbx,%rax
    55a7:	48 89 45 b8          	mov    %rax,-0x48(%rbp)
    55ab:	48 89 f0             	mov    %rsi,%rax
    55ae:	48 89 45 c0          	mov    %rax,-0x40(%rbp)
    55b2:	48 89 f8             	mov    %rdi,%rax
    55b5:	48 89 45 c8          	mov    %rax,-0x38(%rbp)
    55b9:	4c 89 e0             	mov    %r12,%rax
    55bc:	48 89 45 d0          	mov    %rax,-0x30(%rbp)
    55c0:	4c 89 e8             	mov    %r13,%rax
    55c3:	48 89 45 d8          	mov    %rax,-0x28(%rbp)
    55c7:	4c 89 f0             	mov    %r14,%rax
    55ca:	48 89 45 e0          	mov    %rax,-0x20(%rbp)
    55ce:	4c 89 f8             	mov    %r15,%rax
    55d1:	48 89 45 e8          	mov    %rax,-0x18(%rbp)
    store_frame(ProcessExit);

    _DkProcessExit(exitcode);
    55d5:	e8 a6 cf 00 00       	callq  12580 <_DkProcessExit>

    notify_failure(PAL_ERROR_NOTKILLABLE);
}
    55da:	c9                   	leaveq 
{
    store_frame(ProcessExit);

    _DkProcessExit(exitcode);

    notify_failure(PAL_ERROR_NOTKILLABLE);
    55db:	bf 11 00 00 00       	mov    $0x11,%edi
    55e0:	e9 6b f8 00 00       	jmpq   14e50 <notify_failure>
    55e5:	66 66 2e 0f 1f 84 00 	nopw   %cs:0x0(%rax,%rax,1)
    55ec:	00 00 00 00 

00000000000055f0 <DkProcessSandboxCreate>:
}

PAL_BOL DkProcessSandboxCreate (PAL_STR manifest, PAL_FLG flags)
{
    55f0:	55                   	push   %rbp
    55f1:	48 89 e5             	mov    %rsp,%rbp
    55f4:	48 83 ec 70          	sub    $0x70,%rsp

static inline
void __store_frame (struct pal_frame * frame,
                    void * func, const char * funcname)
{
    frame->self = frame;
    55f8:	48 8d 45 90          	lea    -0x70(%rbp),%rax
    frame->func = func;
    frame->funcname = funcname;
    frame->context = NULL;
    55fc:	48 c7 45 f0 00 00 00 	movq   $0x0,-0x10(%rbp)
    5603:	00 
    frame->retval = NULL;
    5604:	48 c7 45 f8 00 00 00 	movq   $0x0,-0x8(%rbp)
    560b:	00 

static inline
void __store_frame (struct pal_frame * frame,
                    void * func, const char * funcname)
{
    frame->self = frame;
    560c:	48 89 45 90          	mov    %rax,-0x70(%rbp)
    frame->func = func;
    5610:	48 8b 05 89 e3 21 00 	mov    0x21e389(%rip),%rax        # 2239a0 <_DYNAMIC+0x1b8>
    5617:	48 89 45 98          	mov    %rax,-0x68(%rbp)
    frame->funcname = funcname;
    561b:	48 8d 05 43 33 01 00 	lea    0x13343(%rip),%rax        # 18965 <handle_sizes.1924+0x1e5>
    5622:	48 89 45 a0          	mov    %rax,-0x60(%rbp)
    frame->context = NULL;
    frame->retval = NULL;
    arch_store_frame(&frame->arch)
    5626:	48 89 e0             	mov    %rsp,%rax
    5629:	48 89 45 a8          	mov    %rax,-0x58(%rbp)
    562d:	48 89 e8             	mov    %rbp,%rax
    5630:	48 89 45 b0          	mov    %rax,-0x50(%rbp)
    5634:	48 89 d8             	mov    %rbx,%rax
    5637:	48 89 45 b8          	mov    %rax,-0x48(%rbp)
    563b:	48 89 f0             	mov    %rsi,%rax
    563e:	48 89 45 c0          	mov    %rax,-0x40(%rbp)
    5642:	48 89 f8             	mov    %rdi,%rax
    5645:	48 89 45 c8          	mov    %rax,-0x38(%rbp)
    5649:	4c 89 e0             	mov    %r12,%rax
    564c:	48 89 45 d0          	mov    %rax,-0x30(%rbp)
    5650:	4c 89 e8             	mov    %r13,%rax
    5653:	48 89 45 d8          	mov    %rax,-0x28(%rbp)
    5657:	4c 89 f0             	mov    %r14,%rax
    565a:	48 89 45 e0          	mov    %rax,-0x20(%rbp)
    565e:	4c 89 f8             	mov    %r15,%rax
    5661:	48 89 45 e8          	mov    %rax,-0x18(%rbp)
    store_frame(ProcessSandboxCreate);

    int ret = _DkProcessSandboxCreate(manifest, flags);
    5665:	e8 66 cf 00 00       	callq  125d0 <_DkProcessSandboxCreate>
    566a:	89 c7                	mov    %eax,%edi
    if (ret < 0) {
        notify_failure(-ret);
        return PAL_FALSE;
    }

    return PAL_TRUE;
    566c:	b8 01 00 00 00       	mov    $0x1,%eax
{
    store_frame(ProcessSandboxCreate);

    int ret = _DkProcessSandboxCreate(manifest, flags);

    if (ret < 0) {
    5671:	85 ff                	test   %edi,%edi
    5673:	78 0b                	js     5680 <DkProcessSandboxCreate+0x90>
        notify_failure(-ret);
        return PAL_FALSE;
    }

    return PAL_TRUE;
}
    5675:	c9                   	leaveq 
    5676:	c3                   	retq   
    5677:	66 0f 1f 84 00 00 00 	nopw   0x0(%rax,%rax,1)
    567e:	00 00 
    store_frame(ProcessSandboxCreate);

    int ret = _DkProcessSandboxCreate(manifest, flags);

    if (ret < 0) {
        notify_failure(-ret);
    5680:	f7 df                	neg    %edi
    5682:	48 63 ff             	movslq %edi,%rdi
    5685:	e8 c6 f7 00 00       	callq  14e50 <notify_failure>
        return PAL_FALSE;
    568a:	31 c0                	xor    %eax,%eax
    }

    return PAL_TRUE;
}
    568c:	c9                   	leaveq 
    568d:	c3                   	retq   
    568e:	90                   	nop    
    568f:	90                   	nop    

0000000000005690 <DkObjectsWaitAny>:
/* PAL call DkObjectsWaitAny: wait for any of the handles in the handle array.
   The wait can be timed out, unless NO_TIMEOUT is given for the timeout
   argument. */
PAL_HANDLE
DkObjectsWaitAny (PAL_NUM count, PAL_HANDLE * handleArray, PAL_NUM timeout)
{
    5690:	55                   	push   %rbp
    5691:	48 89 e5             	mov    %rsp,%rbp
    5694:	48 83 c4 80          	add    $0xffffffffffffff80,%rsp

static inline
void __store_frame (struct pal_frame * frame,
                    void * func, const char * funcname)
{
    frame->self = frame;
    5698:	48 8d 45 90          	lea    -0x70(%rbp),%rax
    frame->func = func;
    frame->funcname = funcname;
    frame->context = NULL;
    569c:	48 c7 45 f0 00 00 00 	movq   $0x0,-0x10(%rbp)
    56a3:	00 
    frame->retval = NULL;
    56a4:	48 c7 45 f8 00 00 00 	movq   $0x0,-0x8(%rbp)
    56ab:	00 

static inline
void __store_frame (struct pal_frame * frame,
                    void * func, const char * funcname)
{
    frame->self = frame;
    56ac:	48 89 45 90          	mov    %rax,-0x70(%rbp)
    frame->func = func;
    56b0:	48 8b 05 99 e2 21 00 	mov    0x21e299(%rip),%rax        # 223950 <_DYNAMIC+0x168>
    56b7:	48 89 45 98          	mov    %rax,-0x68(%rbp)
    frame->funcname = funcname;
    56bb:	48 8d 05 ba 32 01 00 	lea    0x132ba(%rip),%rax        # 1897c <handle_sizes.1924+0x1fc>
    56c2:	48 89 45 a0          	mov    %rax,-0x60(%rbp)
    frame->context = NULL;
    frame->retval = NULL;
    arch_store_frame(&frame->arch)
    56c6:	48 89 e0             	mov    %rsp,%rax
    56c9:	48 89 45 a8          	mov    %rax,-0x58(%rbp)
    56cd:	48 89 e8             	mov    %rbp,%rax
    56d0:	48 89 45 b0          	mov    %rax,-0x50(%rbp)
    56d4:	48 89 d8             	mov    %rbx,%rax
    56d7:	48 89 45 b8          	mov    %rax,-0x48(%rbp)
    56db:	48 89 f0             	mov    %rsi,%rax
    56de:	48 89 45 c0          	mov    %rax,-0x40(%rbp)
    56e2:	48 89 f8             	mov    %rdi,%rax
    56e5:	48 89 45 c8          	mov    %rax,-0x38(%rbp)
    56e9:	4c 89 e0             	mov    %r12,%rax
    56ec:	48 89 45 d0          	mov    %rax,-0x30(%rbp)
    56f0:	4c 89 e8             	mov    %r13,%rax
    56f3:	48 89 45 d8          	mov    %rax,-0x28(%rbp)
    56f7:	4c 89 f0             	mov    %r14,%rax
    56fa:	48 89 45 e0          	mov    %rax,-0x20(%rbp)
    56fe:	4c 89 f8             	mov    %r15,%rax
    store_frame(ObjectsWaitAny);

    if (!count || !handleArray) {
    5701:	48 85 ff             	test   %rdi,%rdi
    5704:	48 89 45 e8          	mov    %rax,-0x18(%rbp)
    5708:	74 4e                	je     5758 <DkObjectsWaitAny+0xc8>
    570a:	48 85 f6             	test   %rsi,%rsi
    570d:	48 89 f0             	mov    %rsi,%rax
    5710:	4c 8d 04 fe          	lea    (%rsi,%rdi,8),%r8
    5714:	74 42                	je     5758 <DkObjectsWaitAny+0xc8>
    5716:	66 2e 0f 1f 84 00 00 	nopw   %cs:0x0(%rax,%rax,1)
    571d:	00 00 00 
        notify_failure(PAL_ERROR_INVAL);
        return NULL;
    }

    for (int i = 0 ; i < count ; i++)
        if (UNKNOWN_HANDLE(handleArray[i]))
    5720:	48 8b 08             	mov    (%rax),%rcx
    5723:	8b 09                	mov    (%rcx),%ecx
    5725:	83 e9 01             	sub    $0x1,%ecx
    5728:	83 f9 10             	cmp    $0x10,%ecx
    572b:	76 07                	jbe    5734 <DkObjectsWaitAny+0xa4>
            handleArray[i] = NULL;
    572d:	48 c7 00 00 00 00 00 	movq   $0x0,(%rax)
    5734:	48 83 c0 08          	add    $0x8,%rax
    if (!count || !handleArray) {
        notify_failure(PAL_ERROR_INVAL);
        return NULL;
    }

    for (int i = 0 ; i < count ; i++)
    5738:	4c 39 c0             	cmp    %r8,%rax
    573b:	75 e3                	jne    5720 <DkObjectsWaitAny+0x90>
        if (UNKNOWN_HANDLE(handleArray[i]))
            handleArray[i] = NULL;

    PAL_HANDLE polled = NULL;

    int ret = _DkObjectsWaitAny (count, handleArray,
    573d:	48 8d 4d 88          	lea    -0x78(%rbp),%rcx

    for (int i = 0 ; i < count ; i++)
        if (UNKNOWN_HANDLE(handleArray[i]))
            handleArray[i] = NULL;

    PAL_HANDLE polled = NULL;
    5741:	48 c7 45 88 00 00 00 	movq   $0x0,-0x78(%rbp)
    5748:	00 

    int ret = _DkObjectsWaitAny (count, handleArray,
    5749:	e8 92 ce 00 00       	callq  125e0 <_DkObjectsWaitAny>
                                 timeout == NO_TIMEOUT ? -1 : timeout,
                                 &polled);

    if (ret < 0) {
    574e:	85 c0                	test   %eax,%eax
    5750:	78 14                	js     5766 <DkObjectsWaitAny+0xd6>
        notify_failure(-ret);
        return NULL;
    }

    return polled;
    5752:	48 8b 45 88          	mov    -0x78(%rbp),%rax
}
    5756:	c9                   	leaveq 
    5757:	c3                   	retq   
DkObjectsWaitAny (PAL_NUM count, PAL_HANDLE * handleArray, PAL_NUM timeout)
{
    store_frame(ObjectsWaitAny);

    if (!count || !handleArray) {
        notify_failure(PAL_ERROR_INVAL);
    5758:	bf 04 00 00 00       	mov    $0x4,%edi
    575d:	e8 ee f6 00 00       	callq  14e50 <notify_failure>
        return NULL;
    5762:	31 c0                	xor    %eax,%eax
        notify_failure(-ret);
        return NULL;
    }

    return polled;
}
    5764:	c9                   	leaveq 
    5765:	c3                   	retq   
    int ret = _DkObjectsWaitAny (count, handleArray,
                                 timeout == NO_TIMEOUT ? -1 : timeout,
                                 &polled);

    if (ret < 0) {
        notify_failure(-ret);
    5766:	f7 d8                	neg    %eax
    5768:	48 63 f8             	movslq %eax,%rdi
    576b:	e8 e0 f6 00 00       	callq  14e50 <notify_failure>
        return NULL;
    5770:	31 c0                	xor    %eax,%eax
    }

    return polled;
}
    5772:	c9                   	leaveq 
    5773:	c3                   	retq   
    5774:	66 66 66 2e 0f 1f 84 	nopw   %cs:0x0(%rax,%rax,1)
    577b:	00 00 00 00 00 

0000000000005780 <_DkObjectReference>:
#include "pal_error.h"
#include "pal_debug.h"
#include "api.h"

int _DkObjectReference (PAL_HANDLE objectHandle)
{
    5780:	55                   	push   %rbp
    if (!objectHandle || UNKNOWN_HANDLE(objectHandle))
    5781:	48 85 ff             	test   %rdi,%rdi
#include "pal_error.h"
#include "pal_debug.h"
#include "api.h"

int _DkObjectReference (PAL_HANDLE objectHandle)
{
    5784:	48 89 e5             	mov    %rsp,%rbp
    if (!objectHandle || UNKNOWN_HANDLE(objectHandle))
    5787:	74 17                	je     57a0 <_DkObjectReference+0x20>
    5789:	8b 07                	mov    (%rdi),%eax
    578b:	83 e8 01             	sub    $0x1,%eax
    578e:	83 f8 10             	cmp    $0x10,%eax
    5791:	77 0d                	ja     57a0 <_DkObjectReference+0x20>
}


static inline void atomic_inc (struct atomic_int * v)
{
    asm volatile(LOCK_PREFIX "incl %0"
    5793:	f0 ff 47 04          	lock incl 0x4(%rdi)
        return -PAL_ERROR_INVAL;

    atomic_inc(&objectHandle->__in.ref);
    return 0;
    5797:	31 c0                	xor    %eax,%eax
}
    5799:	5d                   	pop    %rbp
    579a:	c3                   	retq   
    579b:	0f 1f 44 00 00       	nopl   0x0(%rax,%rax,1)
#include "api.h"

int _DkObjectReference (PAL_HANDLE objectHandle)
{
    if (!objectHandle || UNKNOWN_HANDLE(objectHandle))
        return -PAL_ERROR_INVAL;
    57a0:	b8 fc ff ff ff       	mov    $0xfffffffc,%eax

    atomic_inc(&objectHandle->__in.ref);
    return 0;
}
    57a5:	5d                   	pop    %rbp
    57a6:	c3                   	retq   
    57a7:	66 0f 1f 84 00 00 00 	nopw   0x0(%rax,%rax,1)
    57ae:	00 00 

00000000000057b0 <DkObjectReference>:

void DkObjectReference (PAL_HANDLE objectHandle)
{
    57b0:	55                   	push   %rbp
    57b1:	48 89 e5             	mov    %rsp,%rbp
    57b4:	48 83 ec 70          	sub    $0x70,%rsp

static inline
void __store_frame (struct pal_frame * frame,
                    void * func, const char * funcname)
{
    frame->self = frame;
    57b8:	48 8d 45 90          	lea    -0x70(%rbp),%rax
    frame->func = func;
    frame->funcname = funcname;
    frame->context = NULL;
    57bc:	48 c7 45 f0 00 00 00 	movq   $0x0,-0x10(%rbp)
    57c3:	00 
    frame->retval = NULL;
    57c4:	48 c7 45 f8 00 00 00 	movq   $0x0,-0x8(%rbp)
    57cb:	00 

static inline
void __store_frame (struct pal_frame * frame,
                    void * func, const char * funcname)
{
    frame->self = frame;
    57cc:	48 89 45 90          	mov    %rax,-0x70(%rbp)
    frame->func = func;
    57d0:	48 8b 05 a9 e2 21 00 	mov    0x21e2a9(%rip),%rax        # 223a80 <_DYNAMIC+0x298>
    57d7:	48 89 45 98          	mov    %rax,-0x68(%rbp)
    frame->funcname = funcname;
    57db:	48 8d 05 ab 31 01 00 	lea    0x131ab(%rip),%rax        # 1898d <handle_sizes.1924+0x20d>
    57e2:	48 89 45 a0          	mov    %rax,-0x60(%rbp)
    frame->context = NULL;
    frame->retval = NULL;
    arch_store_frame(&frame->arch)
    57e6:	48 89 e0             	mov    %rsp,%rax
    57e9:	48 89 45 a8          	mov    %rax,-0x58(%rbp)
    57ed:	48 89 e8             	mov    %rbp,%rax
    57f0:	48 89 45 b0          	mov    %rax,-0x50(%rbp)
    57f4:	48 89 d8             	mov    %rbx,%rax
    57f7:	48 89 45 b8          	mov    %rax,-0x48(%rbp)
    57fb:	48 89 f0             	mov    %rsi,%rax
    57fe:	48 89 45 c0          	mov    %rax,-0x40(%rbp)
    5802:	48 89 f8             	mov    %rdi,%rax
    5805:	48 89 45 c8          	mov    %rax,-0x38(%rbp)
    5809:	4c 89 e0             	mov    %r12,%rax
    580c:	48 89 45 d0          	mov    %rax,-0x30(%rbp)
    5810:	4c 89 e8             	mov    %r13,%rax
    5813:	48 89 45 d8          	mov    %rax,-0x28(%rbp)
    5817:	4c 89 f0             	mov    %r14,%rax
    581a:	48 89 45 e0          	mov    %rax,-0x20(%rbp)
    581e:	4c 89 f8             	mov    %r15,%rax
    5821:	48 89 45 e8          	mov    %rax,-0x18(%rbp)
    store_frame(ObjectReference);

    int ret = _DkObjectReference(objectHandle);
    5825:	e8 56 ff ff ff       	callq  5780 <_DkObjectReference>

    if (ret < 0)
    582a:	85 c0                	test   %eax,%eax
    582c:	78 02                	js     5830 <DkObjectReference+0x80>
        notify_failure(-ret);
}
    582e:	c9                   	leaveq 
    582f:	c3                   	retq   
    5830:	c9                   	leaveq 
    store_frame(ObjectReference);

    int ret = _DkObjectReference(objectHandle);

    if (ret < 0)
        notify_failure(-ret);
    5831:	f7 d8                	neg    %eax
    5833:	48 63 f8             	movslq %eax,%rdi
    5836:	e9 15 f6 00 00       	jmpq   14e50 <notify_failure>
    583b:	0f 1f 44 00 00       	nopl   0x0(%rax,%rax,1)

0000000000005840 <_DkObjectClose>:
}

int _DkObjectClose (PAL_HANDLE objectHandle)
{
    5840:	55                   	push   %rbp
    if (!objectHandle || UNKNOWN_HANDLE(objectHandle))
    5841:	48 85 ff             	test   %rdi,%rdi
    if (ret < 0)
        notify_failure(-ret);
}

int _DkObjectClose (PAL_HANDLE objectHandle)
{
    5844:	48 89 e5             	mov    %rsp,%rbp
    if (!objectHandle || UNKNOWN_HANDLE(objectHandle))
    5847:	74 4b                	je     5894 <_DkObjectClose+0x54>
    5849:	8b 07                	mov    (%rdi),%eax
    584b:	83 e8 01             	sub    $0x1,%eax
    584e:	83 f8 10             	cmp    $0x10,%eax
    5851:	77 41                	ja     5894 <_DkObjectClose+0x54>

/* Return 0 if the value drops below zero, 1 if >= 0 */
static inline int atomic_dec_and_test_nonnegative (struct atomic_int * v)
{
    unsigned char c;
    asm volatile(LOCK_PREFIX "decl %0; setns %1"
    5853:	f0 ff 4f 04          	lock decl 0x4(%rdi)
    5857:	0f 99 c0             	setns  %al
        return -PAL_ERROR_INVAL;

    if (atomic_dec_and_test_nonnegative(&objectHandle->__in.ref))
    585a:	84 c0                	test   %al,%al
    585c:	75 32                	jne    5890 <_DkObjectClose+0x50>
        return 0;

    const struct handle_ops * ops = HANDLE_OPS(objectHandle);
    585e:	48 63 07             	movslq (%rdi),%rax
    5861:	8d 50 ff             	lea    -0x1(%rax),%edx
    5864:	83 fa 10             	cmp    $0x10,%edx
    5867:	77 1c                	ja     5885 <_DkObjectClose+0x45>
    5869:	48 8b 15 90 e1 21 00 	mov    0x21e190(%rip),%rdx        # 223a00 <_DYNAMIC+0x218>
    5870:	48 8b 04 c2          	mov    (%rdx,%rax,8),%rax

    /* if the operation 'close' is defined, call the function. */
    if (ops && ops->close)
    5874:	48 85 c0             	test   %rax,%rax
    5877:	74 0c                	je     5885 <_DkObjectClose+0x45>
    5879:	48 8b 40 38          	mov    0x38(%rax),%rax
    587d:	48 85 c0             	test   %rax,%rax
    5880:	74 03                	je     5885 <_DkObjectClose+0x45>
        return ops->close(objectHandle);

    free(objectHandle);
    return 0;
}
    5882:	5d                   	pop    %rbp

    const struct handle_ops * ops = HANDLE_OPS(objectHandle);

    /* if the operation 'close' is defined, call the function. */
    if (ops && ops->close)
        return ops->close(objectHandle);
    5883:	ff e0                	jmpq   *%rax

    free(objectHandle);
    5885:	e8 06 34 00 00       	callq  8c90 <free>
    return 0;
    588a:	31 c0                	xor    %eax,%eax
}
    588c:	5d                   	pop    %rbp
    588d:	c3                   	retq   
    588e:	66 90                	xchg   %ax,%ax
{
    if (!objectHandle || UNKNOWN_HANDLE(objectHandle))
        return -PAL_ERROR_INVAL;

    if (atomic_dec_and_test_nonnegative(&objectHandle->__in.ref))
        return 0;
    5890:	31 c0                	xor    %eax,%eax
    if (ops && ops->close)
        return ops->close(objectHandle);

    free(objectHandle);
    return 0;
}
    5892:	5d                   	pop    %rbp
    5893:	c3                   	retq   
}

int _DkObjectClose (PAL_HANDLE objectHandle)
{
    if (!objectHandle || UNKNOWN_HANDLE(objectHandle))
        return -PAL_ERROR_INVAL;
    5894:	b8 fc ff ff ff       	mov    $0xfffffffc,%eax
    if (ops && ops->close)
        return ops->close(objectHandle);

    free(objectHandle);
    return 0;
}
    5899:	5d                   	pop    %rbp
    589a:	c3                   	retq   
    589b:	0f 1f 44 00 00       	nopl   0x0(%rax,%rax,1)

00000000000058a0 <DkObjectClose>:
/* PAL call DkObjectClose: Close the given object handle. This function is
   different from DkStreamDelete. It works on all kinds of handles, and it
   simply close the reference to the object, the stream is not actually
   deleted. */
void DkObjectClose (PAL_HANDLE objectHandle)
{
    58a0:	55                   	push   %rbp
    58a1:	48 89 e5             	mov    %rsp,%rbp
    58a4:	48 83 ec 70          	sub    $0x70,%rsp

static inline
void __store_frame (struct pal_frame * frame,
                    void * func, const char * funcname)
{
    frame->self = frame;
    58a8:	48 8d 45 90          	lea    -0x70(%rbp),%rax
    frame->func = func;
    frame->funcname = funcname;
    frame->context = NULL;
    58ac:	48 c7 45 f0 00 00 00 	movq   $0x0,-0x10(%rbp)
    58b3:	00 
    frame->retval = NULL;
    58b4:	48 c7 45 f8 00 00 00 	movq   $0x0,-0x8(%rbp)
    58bb:	00 

static inline
void __store_frame (struct pal_frame * frame,
                    void * func, const char * funcname)
{
    frame->self = frame;
    58bc:	48 89 45 90          	mov    %rax,-0x70(%rbp)
    frame->func = func;
    58c0:	48 8b 05 49 e2 21 00 	mov    0x21e249(%rip),%rax        # 223b10 <_DYNAMIC+0x328>
    58c7:	48 89 45 98          	mov    %rax,-0x68(%rbp)
    frame->funcname = funcname;
    58cb:	48 8d 05 cd 30 01 00 	lea    0x130cd(%rip),%rax        # 1899f <handle_sizes.1924+0x21f>
    58d2:	48 89 45 a0          	mov    %rax,-0x60(%rbp)
    frame->context = NULL;
    frame->retval = NULL;
    arch_store_frame(&frame->arch)
    58d6:	48 89 e0             	mov    %rsp,%rax
    58d9:	48 89 45 a8          	mov    %rax,-0x58(%rbp)
    58dd:	48 89 e8             	mov    %rbp,%rax
    58e0:	48 89 45 b0          	mov    %rax,-0x50(%rbp)
    58e4:	48 89 d8             	mov    %rbx,%rax
    58e7:	48 89 45 b8          	mov    %rax,-0x48(%rbp)
    58eb:	48 89 f0             	mov    %rsi,%rax
    58ee:	48 89 45 c0          	mov    %rax,-0x40(%rbp)
    58f2:	48 89 f8             	mov    %rdi,%rax
    58f5:	48 89 45 c8          	mov    %rax,-0x38(%rbp)
    58f9:	4c 89 e0             	mov    %r12,%rax
    58fc:	48 89 45 d0          	mov    %rax,-0x30(%rbp)
    5900:	4c 89 e8             	mov    %r13,%rax
    5903:	48 89 45 d8          	mov    %rax,-0x28(%rbp)
    5907:	4c 89 f0             	mov    %r14,%rax
    590a:	48 89 45 e0          	mov    %rax,-0x20(%rbp)
    590e:	4c 89 f8             	mov    %r15,%rax
    5911:	48 89 45 e8          	mov    %rax,-0x18(%rbp)
    store_frame(ObjectClose);

    int ret = _DkObjectClose(objectHandle);
    5915:	e8 26 ff ff ff       	callq  5840 <_DkObjectClose>

    if (ret < 0)
    591a:	85 c0                	test   %eax,%eax
    591c:	78 02                	js     5920 <DkObjectClose+0x80>
        notify_failure(-ret);
}
    591e:	c9                   	leaveq 
    591f:	c3                   	retq   
    5920:	c9                   	leaveq 
    store_frame(ObjectClose);

    int ret = _DkObjectClose(objectHandle);

    if (ret < 0)
        notify_failure(-ret);
    5921:	f7 d8                	neg    %eax
    5923:	48 63 f8             	movslq %eax,%rdi
    5926:	e9 25 f5 00 00       	jmpq   14e50 <notify_failure>
    592b:	90                   	nop    
    592c:	90                   	nop    
    592d:	90                   	nop    
    592e:	90                   	nop    
    592f:	90                   	nop    

0000000000005930 <read_envs>:

    return 0;
}

static void read_envs (const char ** envp)
{
    5930:	55                   	push   %rbp
    5931:	48 89 e5             	mov    %rsp,%rbp
    5934:	41 57                	push   %r15
    5936:	41 56                	push   %r14
    5938:	41 55                	push   %r13
    593a:	41 54                	push   %r12
    593c:	53                   	push   %rbx
    593d:	48 81 ec 48 02 00 00 	sub    $0x248,%rsp
    if (!pal_config.root_config)
    5944:	48 8b 05 d5 e0 21 00 	mov    0x21e0d5(%rip),%rax        # 223a20 <_DYNAMIC+0x238>

    return 0;
}

static void read_envs (const char ** envp)
{
    594b:	48 89 bd b8 fd ff ff 	mov    %rdi,-0x248(%rbp)
    if (!pal_config.root_config)
    5952:	48 8b 78 20          	mov    0x20(%rax),%rdi
    5956:	48 85 ff             	test   %rdi,%rdi
    5959:	0f 84 13 03 00 00    	je     5c72 <read_envs+0x342>

    char cfgbuf[CONFIG_MAX];

   /* loader.env.* and loader.exclude.env: filtering host environment
     * variables */
    int nenvs = get_config_entries(pal_config.root_config, "loader.env", cfgbuf,
    595f:	48 8d 85 d0 fd ff ff 	lea    -0x230(%rbp),%rax
    5966:	48 8d 35 40 30 01 00 	lea    0x13040(%rip),%rsi        # 189ad <handle_sizes.1924+0x22d>
    596d:	b9 00 01 00 00       	mov    $0x100,%ecx
    5972:	48 89 c2             	mov    %rax,%rdx
    5975:	48 89 c3             	mov    %rax,%rbx
    5978:	48 89 85 c0 fd ff ff 	mov    %rax,-0x240(%rbp)
    597f:	e8 9c 25 01 00       	callq  17f20 <get_config_entries>
                                   CONFIG_MAX);
    printf("config -- %s",cfgbuf);
    5984:	48 8d 3d 2d 30 01 00 	lea    0x1302d(%rip),%rdi        # 189b8 <handle_sizes.1924+0x238>

    char cfgbuf[CONFIG_MAX];

   /* loader.env.* and loader.exclude.env: filtering host environment
     * variables */
    int nenvs = get_config_entries(pal_config.root_config, "loader.env", cfgbuf,
    598b:	41 89 c7             	mov    %eax,%r15d
    598e:	89 85 a0 fd ff ff    	mov    %eax,-0x260(%rbp)
                                   CONFIG_MAX);
    printf("config -- %s",cfgbuf);
    5994:	48 89 de             	mov    %rbx,%rsi
    5997:	31 c0                	xor    %eax,%eax
    5999:	e8 82 34 00 00       	callq  8e20 <pal_printf>

    if (nenvs > 0) {
    599e:	49 63 c7             	movslq %r15d,%rax
    59a1:	85 c0                	test   %eax,%eax
    59a3:	0f 8e c9 02 00 00    	jle    5c72 <read_envs+0x342>
        struct env { const char * str; int len, idx; } * envs
                                    = __alloca(sizeof(struct env) * nenvs);
    59a9:	48 c1 e0 04          	shl    $0x4,%rax
        char * cfg = cfgbuf;
        for (int i = 0 ; i < nenvs ; i++) {
            int len = strlen(cfg);
            char * str = __alloca(len + 1);
    59ad:	41 bc 10 00 00 00    	mov    $0x10,%r12d
    int nenvs = get_config_entries(pal_config.root_config, "loader.env", cfgbuf,
                                   CONFIG_MAX);
    printf("config -- %s",cfgbuf);

    if (nenvs > 0) {
        struct env { const char * str; int len, idx; } * envs
    59b3:	48 83 c0 10          	add    $0x10,%rax
    59b7:	48 29 c4             	sub    %rax,%rsp
    59ba:	44 89 f8             	mov    %r15d,%eax
    59bd:	4c 8d 74 24 0f       	lea    0xf(%rsp),%r14
    59c2:	83 e8 01             	sub    $0x1,%eax
    59c5:	48 89 85 98 fd ff ff 	mov    %rax,-0x268(%rbp)
    59cc:	48 c1 e0 04          	shl    $0x4,%rax
    59d0:	49 83 e6 f0          	and    $0xfffffffffffffff0,%r14
    59d4:	49 8d 44 06 18       	lea    0x18(%r14,%rax,1),%rax
    59d9:	4d 8d 6e 08          	lea    0x8(%r14),%r13
    59dd:	4c 89 b5 b0 fd ff ff 	mov    %r14,-0x250(%rbp)
    59e4:	48 89 85 a8 fd ff ff 	mov    %rax,-0x258(%rbp)
    59eb:	4d 89 ee             	mov    %r13,%r14
                                    = __alloca(sizeof(struct env) * nenvs);
        char * cfg = cfgbuf;
        for (int i = 0 ; i < nenvs ; i++) {
            int len = strlen(cfg);
            char * str = __alloca(len + 1);
    59ee:	4c 89 ad c8 fd ff ff 	mov    %r13,-0x238(%rbp)
    59f5:	49 89 c7             	mov    %rax,%r15
    59f8:	0f 1f 84 00 00 00 00 	nopl   0x0(%rax,%rax,1)
    59ff:	00 
    if (nenvs > 0) {
        struct env { const char * str; int len, idx; } * envs
                                    = __alloca(sizeof(struct env) * nenvs);
        char * cfg = cfgbuf;
        for (int i = 0 ; i < nenvs ; i++) {
            int len = strlen(cfg);
    5a00:	48 89 df             	mov    %rbx,%rdi
    5a03:	49 83 c6 10          	add    $0x10,%r14
    5a07:	e8 94 0d 01 00       	callq  167a0 <strlen>
            char * str = __alloca(len + 1);
    5a0c:	8d 70 01             	lea    0x1(%rax),%esi
    if (nenvs > 0) {
        struct env { const char * str; int len, idx; } * envs
                                    = __alloca(sizeof(struct env) * nenvs);
        char * cfg = cfgbuf;
        for (int i = 0 ; i < nenvs ; i++) {
            int len = strlen(cfg);
    5a0f:	49 89 c5             	mov    %rax,%r13
            char * str = __alloca(len + 1);
    5a12:	31 d2                	xor    %edx,%edx
            envs[i].str = str;
            envs[i].len = len;
    5a14:	45 89 6e f0          	mov    %r13d,-0x10(%r14)
            envs[i].idx = -1;
    5a18:	41 c7 46 f4 ff ff ff 	movl   $0xffffffff,-0xc(%r14)
    5a1f:	ff 
        struct env { const char * str; int len, idx; } * envs
                                    = __alloca(sizeof(struct env) * nenvs);
        char * cfg = cfgbuf;
        for (int i = 0 ; i < nenvs ; i++) {
            int len = strlen(cfg);
            char * str = __alloca(len + 1);
    5a20:	48 63 f6             	movslq %esi,%rsi
    5a23:	48 8d 46 1e          	lea    0x1e(%rsi),%rax
    5a27:	49 f7 f4             	div    %r12
            envs[i].str = str;
            envs[i].len = len;
            envs[i].idx = -1;
            memcpy(str, cfg, len + 1);
    5a2a:	48 89 f2             	mov    %rsi,%rdx
    5a2d:	48 89 de             	mov    %rbx,%rsi
        struct env { const char * str; int len, idx; } * envs
                                    = __alloca(sizeof(struct env) * nenvs);
        char * cfg = cfgbuf;
        for (int i = 0 ; i < nenvs ; i++) {
